
DAPLink.elf:     file format elf32-littleriscv
DAPLink.elf
architecture: riscv:rv32, flags 0x00000112:
EXEC_P, HAS_SYMS, D_PAGED
start address 0x00000000

Program Header:
    LOAD off    0x00001000 vaddr 0x00000000 paddr 0x00000000 align 2**12
         filesz 0x00005210 memsz 0x00005210 flags r-x
    LOAD off    0x00007000 vaddr 0x20000000 paddr 0x00005210 align 2**12
         filesz 0x00000030 memsz 0x00001d18 flags rw-
    LOAD off    0x00008000 vaddr 0x20007000 paddr 0x20007000 align 2**12
         filesz 0x00000000 memsz 0x00001000 flags rw-

Sections:
Idx Name          Size      VMA       LMA       File off  Algn
  0 .init         00000038  00000000  00000000  00001000  2**1
                  CONTENTS, ALLOC, LOAD, READONLY, CODE
  1 .vector       000001c8  00000038  00000038  00001038  2**1
                  CONTENTS, ALLOC, LOAD, READONLY, CODE
  2 .text         00005010  00000200  00000200  00001200  2**2
                  CONTENTS, ALLOC, LOAD, READONLY, CODE
  3 .fini         00000000  00005210  00005210  00007030  2**0
                  CONTENTS, ALLOC, LOAD, CODE
  4 .dalign       00000000  20000000  20000000  00007030  2**0
                  CONTENTS
  5 .dlalign      00000000  00005210  00005210  00007030  2**0
                  CONTENTS
  6 .data         00000030  20000000  00005210  00007000  2**2
                  CONTENTS, ALLOC, LOAD, DATA
  7 .bss          00001ce8  20000030  00005240  00007030  2**2
                  ALLOC
  8 .stack        00001000  20007000  20007000  00008000  2**0
                  ALLOC
  9 .debug_info   00013425  00000000  00000000  00007030  2**0
                  CONTENTS, READONLY, DEBUGGING
 10 .debug_abbrev 00002882  00000000  00000000  0001a455  2**0
                  CONTENTS, READONLY, DEBUGGING
 11 .debug_loc    00009e45  00000000  00000000  0001ccd7  2**0
                  CONTENTS, READONLY, DEBUGGING
 12 .debug_aranges 00000698  00000000  00000000  00026b20  2**3
                  CONTENTS, READONLY, DEBUGGING
 13 .debug_ranges 00001668  00000000  00000000  000271b8  2**3
                  CONTENTS, READONLY, DEBUGGING
 14 .debug_line   000155d2  00000000  00000000  00028820  2**0
                  CONTENTS, READONLY, DEBUGGING
 15 .debug_str    000033f5  00000000  00000000  0003ddf2  2**0
                  CONTENTS, READONLY, DEBUGGING
 16 .comment      00000033  00000000  00000000  000411e7  2**0
                  CONTENTS, READONLY
 17 .debug_frame  00000f4c  00000000  00000000  0004121c  2**2
                  CONTENTS, READONLY, DEBUGGING
SYMBOL TABLE:
00000000 l    d  .init	00000000 .init
00000038 l    d  .vector	00000000 .vector
00000200 l    d  .text	00000000 .text
00005210 l    d  .fini	00000000 .fini
20000000 l    d  .dalign	00000000 .dalign
00005210 l    d  .dlalign	00000000 .dlalign
20000000 l    d  .data	00000000 .data
20000030 l    d  .bss	00000000 .bss
20007000 l    d  .stack	00000000 .stack
00000000 l    d  .debug_info	00000000 .debug_info
00000000 l    d  .debug_abbrev	00000000 .debug_abbrev
00000000 l    d  .debug_loc	00000000 .debug_loc
00000000 l    d  .debug_aranges	00000000 .debug_aranges
00000000 l    d  .debug_ranges	00000000 .debug_ranges
00000000 l    d  .debug_line	00000000 .debug_line
00000000 l    d  .debug_str	00000000 .debug_str
00000000 l    d  .comment	00000000 .comment
00000000 l    d  .debug_frame	00000000 .debug_frame
00000000 l    df *ABS*	00000000 ./src/Startup/startup_ch32v30x_D8C.o
00000038 l       .vector	00000000 _vector_base
00000000 l    df *ABS*	00000000 ch32v30x_usbhs_device.c
20000040 l     O .bss	00000008 USBHS_Setup
00000000 l    df *ABS*	00000000 system_ch32v30x.c
00000000 l    df *ABS*	00000000 ch32v30x_dma.c
00000000 l    df *ABS*	00000000 ch32v30x_gpio.c
00000000 l    df *ABS*	00000000 ch32v30x_rcc.c
20000000 l     O .data	00000010 APBAHBPrescTable
20000014 l     O .data	00000004 ADCPrescTable
00000000 l    df *ABS*	00000000 ch32v30x_usart.c
00000000 l    df *ABS*	00000000 hid_transfer.c
200008bc l     O .bss	00000100 USB_Request
200009bc l     O .bss	00000100 USB_Response
2000004c l     O .bss	00000001 USB_RequestFull
20000050 l     O .bss	00000004 USB_RequestIn
20000054 l     O .bss	00000004 USB_RequestOut
20000058 l     O .bss	00000001 USB_ResponseFull
2000005c l     O .bss	00000004 USB_ResponseIn
20000060 l     O .bss	00000004 USB_ResponseOut
20000018 l     O .data	00000001 USB_ResponseIdle
00000000 l    df *ABS*	00000000 main.c
00000000 l    df *ABS*	00000000 vcom_serial.c
20000068 l     O .bss	00000004 last_ms.4747
2000006c l     O .bss	00000004 last_pos.4748
00000000 l    df *ABS*	00000000 SWD_host.c
00001972 l     F .text	00000022 int2array
00001994 l     F .text	00000024 swd_transfer_retry
000019b8 l     F .text	0000004a swd_write_data
20000070 l     O .bss	00000008 dap_state
00000000 l    df *ABS*	00000000 DAP.c
00001ac2 l     F .text	0000008c PORT_OFF
20000028 l     O .data	00000006 DAP_FW_Ver
00000000 l    df *ABS*	00000000 JTAG_DP.c
00000000 l    df *ABS*	00000000 SW_DP.c
00000000 l    df *ABS*	00000000 memcpy.c
00000000 l    df *ABS*	00000000 usb_desc.c
0000510c g     O .text	00000024 USB_StringProduct
00000ca4  w      .text	00000000 EXTI2_IRQHandler
00000cee  w      .text	00000000 TIM8_TRG_COM_IRQHandler
00000cf0  w      .text	00000000 TIM8_CC_IRQHandler
00000f0c g     F .text	00000018 DMA_Cmd
000013e6 g     F .text	000000dc usbd_hid_process
00000d26  w      .text	00000000 UART8_IRQHandler
20000048 g     O .bss	00000004 pUSBHS_Descr
00005080 g     O .text	0000006b USB_CfgDesc_HS
000017ec g     F .text	00000186 VCOM_TransferData
20000810 g       .data	00000000 __global_pointer$
00000208 g     F .text	00000028 .hidden __riscv_save_8
00000cca  w      .text	00000000 TIM1_CC_IRQHandler
00000c88  w      .text	00000000 HardFault_Handler
00000254 g     F .text	0000000c .hidden __riscv_restore_3
00000d00  w      .text	00000000 TIM6_IRQHandler
00001606 g     F .text	00000016 SysTick_Handler
2000003c g     O .bss	00000001 USBHS_HID_Idle
00000c96  w      .text	00000000 PVD_IRQHandler
00000cf6  w      .text	00000000 SDIO_IRQHandler
00000d28  w      .text	00000000 TIM9_BRK_IRQHandler
2000003d g     O .bss	00000001 USBHS_HID_Protocol
00000240 g     F .text	00000020 .hidden __riscv_restore_10
00000d3c  w      .text	00000000 DMA2_Channel8_IRQHandler
00000c86  w      .text	00000000 NMI_Handler
0000127e g     F .text	00000024 RCC_USBHSPHYPLLALIVEcmd
00000d16  w      .text	00000000 CAN2_RX1_IRQHandler
00000ca6  w      .text	00000000 EXTI3_IRQHandler
00000208 g     F .text	00000028 .hidden __riscv_save_11
000003b0 g     F .text	000008d6 USBHS_IRQHandler
00003280 g     F .text	000000ea JTAG_Sequence
20000033 g     O .bss	00000001 USBHS_DevSpeed
00000d3e  w      .text	00000000 DMA2_Channel9_IRQHandler
00000d36  w      .text	00000000 TIM10_CC_IRQHandler
20000030 g       .bss	00000000 _sbss
00001000 g       *ABS*	00000000 __stack_size
200000bc g     O .bss	00000200 USBHS_EP1_Rx_Buf
00000ed4 g     F .text	00000038 DMA_Init
00003b26 g     F .text	00000770 JTAG_Transfer
20000024 g     O .data	00000004 USB_StringLangID
00001b66 g     F .text	0000168a DAP_ProcessCommand
00001724 g     F .text	000000c8 VCOM_LineCoding
00000f28 g     F .text	00000008 DMA_GetCurrDataCounter
00000254 g     F .text	0000000c .hidden __riscv_restore_2
000012a2 g     F .text	00000016 RCC_USBCLK48MConfig
2000007c g     O .bss	00000040 USBHS_EP0_Buf
00004ff4 g     O .text	0000001d HID_ReportDesc_HS
00004dd6 g     F .text	000000b6 memcpy
00000ca0  w      .text	00000000 EXTI0_IRQHandler
00000cd6  w      .text	00000000 I2C2_EV_IRQHandler
00000d34  w      .text	00000000 TIM10_TRG_COM_IRQHandler
20000010 g     O .data	00000004 SystemCoreClock
20000031 g     O .bss	00000001 USBHS_DevConfig
00000038 g       .init	00000000 _einit
0000124a g     F .text	0000001a RCC_USBHSPLLCLKConfig
00000f24 g     F .text	00000004 DMA_SetCurrDataCounter
00001a9c g     F .text	00000026 swd_write_word
000011f4 g     F .text	0000001e RCC_APB2PeriphClockCmd
00000200 g     F .text	00000030 .hidden __riscv_save_12
00000d18  w      .text	00000000 CAN2_SCE_IRQHandler
00000cb8  w      .text	00000000 ADC1_2_IRQHandler
00000f30 g     F .text	000000ca GPIO_Init
00000c8e  w      .text	00000000 Break_Point_Handler
00000240 g     F .text	00000020 .hidden __riscv_restore_11
00000cda  w      .text	00000000 SPI1_IRQHandler
000013a8 g     F .text	00000020 USART_Cmd
00000c98  w      .text	00000000 TAMPER_IRQHandler
00000230 g     F .text	0000000c .hidden __riscv_save_1
00000254 g     F .text	0000000c .hidden __riscv_restore_0
00000216 g     F .text	0000001a .hidden __riscv_save_7
00000d14  w      .text	00000000 CAN2_RX0_IRQHandler
00000cec  w      .text	00000000 TIM8_UP_IRQHandler
00001212 g     F .text	0000001e RCC_APB1PeriphClockCmd
00000c8a  w      .text	00000000 Ecall_M_Mode_Handler
20001cd4 g     O .bss	00000044 DAP_Data
0000024a g     F .text	00000016 .hidden __riscv_restore_5
00000d06  w      .text	00000000 DMA2_Channel2_IRQHandler
000011d6 g     F .text	0000001e RCC_AHBPeriphClockCmd
00000cb0  w      .text	00000000 DMA1_Channel4_IRQHandler
00005130 g     O .text	0000001a USB_StringSerialNbr
20000ebc g     O .bss	00000200 TXBuffer
20000030 g     O .bss	00000001 USBHS_DevAddr
00000d2a  w      .text	00000000 TIM9_UP_IRQHandler
000042f4 g     F .text	000000e4 SWD_Sequence
0000024a g     F .text	00000016 .hidden __riscv_restore_6
00000ce2  w      .text	00000000 USART3_IRQHandler
00000c9a  w      .text	00000000 RTC_IRQHandler
20001d18 g       .bss	00000000 _ebss
00000cb6  w      .text	00000000 DMA1_Channel7_IRQHandler
00001264 g     F .text	0000001a RCC_USBHSPLLCKREFCLKConfig
00000cbe  w      .text	00000000 CAN1_RX1_IRQHandler
00000d20  w      .text	00000000 DVP_IRQHandler
00000cfe  w      .text	00000000 UART5_IRQHandler
200002bc g     O .bss	00000200 USBHS_EP1_Tx_Buf
00000ffa g     F .text	00000004 GPIO_SetBits
00000cd0  w      .text	00000000 TIM4_IRQHandler
00000208 g     F .text	00000028 .hidden __riscv_save_9
00000d04  w      .text	00000000 DMA2_Channel1_IRQHandler
00000216 g     F .text	0000001a .hidden __riscv_save_4
0000161c g     F .text	00000108 VCOM_Init
00000cd2  w      .text	00000000 I2C1_EV_IRQHandler
00000260 g     F .text	00000030 USBHS_RCC_Init
00000ffe g     F .text	000001d8 RCC_GetClocksFreq
00000cb4  w      .text	00000000 DMA1_Channel6_IRQHandler
20000064 g     O .bss	00000004 SysTick_ms
00000cfc  w      .text	00000000 UART4_IRQHandler
00000d0a  w      .text	00000000 DMA2_Channel4_IRQHandler
000012b8 g     F .text	000000f0 USART_Init
00000cce  w      .text	00000000 TIM3_IRQHandler
00000c9e  w      .text	00000000 RCC_IRQHandler
200010bc g     O .bss	00000c16 Vcom
00000230 g     F .text	0000000c .hidden __riscv_save_3
00000cc8  w      .text	00000000 TIM1_TRG_COM_IRQHandler
00000caa  w      .text	00000000 DMA1_Channel1_IRQHandler
00000000 g       .init	00000000 _start
00000d3a  w      .text	00000000 DMA2_Channel7_IRQHandler
00004296 g     F .text	0000005e SWJ_Sequence
00000ce4  w      .text	00000000 EXTI15_10_IRQHandler
00003746 g     F .text	000003e0 JTAG_IR
200004bc g     O .bss	00000200 USBHS_EP3_Rx_Buf
00001230 g     F .text	0000001a RCC_USBHSConfig
000043d8 g     F .text	000009fe SWD_Transfer
20000034 g     O .bss	00000008 USBHS_EP2_Tx_Buf
00005014 g     O .text	0000006b USB_CfgDesc_FS
00000d02  w      .text	00000000 TIM7_IRQHandler
00000d12  w      .text	00000000 CAN2_TX_IRQHandler
20000000 g       .dalign	00000000 _data_vma
00000cf8  w      .text	00000000 TIM5_IRQHandler
00001b4e  w    F .text	0000000c DAP_ProcessVendorCommand
0000031e g     F .text	00000092 USBHS_Device_Init
00001532 g     F .text	0000007e HID_SetInReport
00000cc2  w      .text	00000000 EXTI9_5_IRQHandler
00000208 g     F .text	00000028 .hidden __riscv_save_10
00000d10  w      .text	00000000 ETH_WKUP_IRQHandler
00001a3e g     F .text	0000005e swd_write_ap
0000024a g     F .text	00000016 .hidden __riscv_restore_4
00000240 g     F .text	00000020 .hidden __riscv_restore_8
00000216 g     F .text	0000001a .hidden __riscv_save_6
00000cdc  w      .text	00000000 SPI2_IRQHandler
0000336a g     F .text	00000156 JTAG_ReadIDCode
00000240 g     F .text	00000020 .hidden __riscv_restore_9
0000024a g     F .text	00000016 .hidden __riscv_restore_7
000015da g     F .text	0000002c main
00000d30  w      .text	00000000 TIM10_BRK_IRQHandler
00000d2e  w      .text	00000000 TIM9_CC_IRQHandler
00000d0c  w      .text	00000000 DMA2_Channel5_IRQHandler
00000cb2  w      .text	00000000 DMA1_Channel5_IRQHandler
00000ca8  w      .text	00000000 EXTI4_IRQHandler
00000cbc  w      .text	00000000 USB_LP_CAN1_RX0_IRQHandler
00001b5a  w    F .text	0000000c DAP_ProcessVendorCommandEx
00000dd2 g     F .text	00000102 SystemInit
00000cf2  w      .text	00000000 RNG_IRQHandler
00000cba  w      .text	00000000 USB_HP_CAN1_TX_IRQHandler
0000514c g     O .text	00000012 USB_StringVendor
00000000 g       .init	00000000 _sinit
00000cae  w      .text	00000000 DMA1_Channel3_IRQHandler
00000cf4  w      .text	00000000 FSMC_IRQHandler
00000d0e  w      .text	00000000 ETH_IRQHandler
00000cc6  w      .text	00000000 TIM1_UP_IRQHandler
200006bc g     O .bss	00000200 USBHS_EP3_Tx_Buf
00000c94  w      .text	00000000 WWDG_IRQHandler
00000d1c  w      .text	00000000 USBHSWakeup_IRQHandler
00000d42  w      .text	00000000 DMA2_Channel11_IRQHandler
00000c8c  w      .text	00000000 Ecall_U_Mode_Handler
20000abc g     O .bss	00000400 RXBuffer
00000d38  w      .text	00000000 DMA2_Channel6_IRQHandler
00000ccc  w      .text	00000000 TIM2_IRQHandler
20008000 g       .stack	00000000 _eusrstack
00000230 g     F .text	0000000c .hidden __riscv_save_2
00000c92  w      .text	00000000 SW_Handler
00005100 g     O .text	0000000a USB_QualifierDesc
00000cc4  w      .text	00000000 TIM1_BRK_IRQHandler
000034c0 g     F .text	00000286 JTAG_WriteAbort
00000d40  w      .text	00000000 DMA2_Channel10_IRQHandler
00000ca2  w      .text	00000000 EXTI1_IRQHandler
20000078 g     O .bss	00000001 DAP_TransferAbort
00000216 g     F .text	0000001a .hidden __riscv_save_5
00004fd4 g     O .text	0000001d HID_ReportDesc_FS
20000030 g       .data	00000000 _edata
00000ce6  w      .text	00000000 RTCAlarm_IRQHandler
00000290 g     F .text	0000008e USBHS_Device_Endp_Init
00001a02 g     F .text	0000003c swd_write_dp
00005210 g       .dlalign	00000000 _data_lma
00000d32  w      .text	00000000 TIM10_UP_IRQHandler
00000d2c  w      .text	00000000 TIM9_TRG_COM_IRQHandler
00000d24  w      .text	00000000 UART7_IRQHandler
00000ce0  w      .text	00000000 USART2_IRQHandler
00000d22  w      .text	00000000 UART6_IRQHandler
00000cd8  w      .text	00000000 I2C2_ER_IRQHandler
00000cac  w      .text	00000000 DMA1_Channel2_IRQHandler
0000023c g     F .text	00000024 .hidden __riscv_restore_12
00000cea  w      .text	00000000 TIM8_BRK_IRQHandler
00000d44  w      .text	00000000 handle_reset
00000cc0  w      .text	00000000 CAN1_SCE_IRQHandler
00000c9c  w      .text	00000000 FLASH_IRQHandler
00000230 g     F .text	0000000c .hidden __riscv_save_0
00000cde  w      .text	00000000 USART1_IRQHandler
00000d1a  w      .text	00000000 OTG_FS_IRQHandler
00000cfa  w      .text	00000000 SPI3_IRQHandler
00000cd4  w      .text	00000000 I2C1_ER_IRQHandler
20000032 g     O .bss	00000001 USBHS_DevEnumStatus
00000254 g     F .text	0000000c .hidden __riscv_restore_1
000013c8 g     F .text	0000001e USART_DMACmd
000050ec g     O .text	00000012 USB_DevDesc
000015b0 g     F .text	0000002a SysTick_Config
00000ce8  w      .text	00000000 USBWakeUp_IRQHandler
2000001c g     O .data	00000007 LineCfg
000031f0 g     F .text	00000090 DAP_Setup
00000d08  w      .text	00000000 DMA2_Channel3_IRQHandler
000014c2 g     F .text	00000070 HID_GetOutReport



Disassembly of section .init:

00000000 <_sinit>:
   0:	5450006f          	j	d44 <handle_reset>
   4:	00000013          	nop
   8:	00000013          	nop
   c:	00000013          	nop
  10:	00000013          	nop
  14:	00000013          	nop
  18:	00000013          	nop
  1c:	00000013          	nop
  20:	00000013          	nop
  24:	00000013          	nop
  28:	00000013          	nop
  2c:	00000013          	nop
  30:	00000013          	nop
  34:	00100073          	ebreak

Disassembly of section .vector:

00000038 <_vector_base>:
	...
  40:	0c86                	slli	s9,s9,0x1
  42:	0000                	unimp
  44:	0c88                	addi	a0,sp,592
  46:	0000                	unimp
  48:	0000                	unimp
  4a:	0000                	unimp
  4c:	0c8a                	slli	s9,s9,0x2
	...
  56:	0000                	unimp
  58:	0c8c                	addi	a1,sp,592
  5a:	0000                	unimp
  5c:	0c8e                	slli	s9,s9,0x3
	...
  66:	0000                	unimp
  68:	1606                	slli	a2,a2,0x21
  6a:	0000                	unimp
  6c:	0000                	unimp
  6e:	0000                	unimp
  70:	0c92                	slli	s9,s9,0x4
  72:	0000                	unimp
  74:	0000                	unimp
  76:	0000                	unimp
  78:	0c94                	addi	a3,sp,592
  7a:	0000                	unimp
  7c:	0c96                	slli	s9,s9,0x5
  7e:	0000                	unimp
  80:	0c98                	addi	a4,sp,592
  82:	0000                	unimp
  84:	0c9a                	slli	s9,s9,0x6
  86:	0000                	unimp
  88:	0c9c                	addi	a5,sp,592
  8a:	0000                	unimp
  8c:	0c9e                	slli	s9,s9,0x7
  8e:	0000                	unimp
  90:	0ca0                	addi	s0,sp,600
  92:	0000                	unimp
  94:	0ca2                	slli	s9,s9,0x8
  96:	0000                	unimp
  98:	0ca4                	addi	s1,sp,600
  9a:	0000                	unimp
  9c:	0ca6                	slli	s9,s9,0x9
  9e:	0000                	unimp
  a0:	0ca8                	addi	a0,sp,600
  a2:	0000                	unimp
  a4:	0caa                	slli	s9,s9,0xa
  a6:	0000                	unimp
  a8:	0cac                	addi	a1,sp,600
  aa:	0000                	unimp
  ac:	0cae                	slli	s9,s9,0xb
  ae:	0000                	unimp
  b0:	0cb0                	addi	a2,sp,600
  b2:	0000                	unimp
  b4:	0cb2                	slli	s9,s9,0xc
  b6:	0000                	unimp
  b8:	0cb4                	addi	a3,sp,600
  ba:	0000                	unimp
  bc:	0cb6                	slli	s9,s9,0xd
  be:	0000                	unimp
  c0:	0cb8                	addi	a4,sp,600
  c2:	0000                	unimp
  c4:	0cba                	slli	s9,s9,0xe
  c6:	0000                	unimp
  c8:	0cbc                	addi	a5,sp,600
  ca:	0000                	unimp
  cc:	0cbe                	slli	s9,s9,0xf
  ce:	0000                	unimp
  d0:	0cc0                	addi	s0,sp,596
  d2:	0000                	unimp
  d4:	0cc2                	slli	s9,s9,0x10
  d6:	0000                	unimp
  d8:	0cc4                	addi	s1,sp,596
  da:	0000                	unimp
  dc:	0cc6                	slli	s9,s9,0x11
  de:	0000                	unimp
  e0:	0cc8                	addi	a0,sp,596
  e2:	0000                	unimp
  e4:	0cca                	slli	s9,s9,0x12
  e6:	0000                	unimp
  e8:	0ccc                	addi	a1,sp,596
  ea:	0000                	unimp
  ec:	0cce                	slli	s9,s9,0x13
  ee:	0000                	unimp
  f0:	0cd0                	addi	a2,sp,596
  f2:	0000                	unimp
  f4:	0cd2                	slli	s9,s9,0x14
  f6:	0000                	unimp
  f8:	0cd4                	addi	a3,sp,596
  fa:	0000                	unimp
  fc:	0cd6                	slli	s9,s9,0x15
  fe:	0000                	unimp
 100:	0cd8                	addi	a4,sp,596
 102:	0000                	unimp
 104:	0cda                	slli	s9,s9,0x16
 106:	0000                	unimp
 108:	0cdc                	addi	a5,sp,596
 10a:	0000                	unimp
 10c:	0cde                	slli	s9,s9,0x17
 10e:	0000                	unimp
 110:	0ce0                	addi	s0,sp,604
 112:	0000                	unimp
 114:	0ce2                	slli	s9,s9,0x18
 116:	0000                	unimp
 118:	0ce4                	addi	s1,sp,604
 11a:	0000                	unimp
 11c:	0ce6                	slli	s9,s9,0x19
 11e:	0000                	unimp
 120:	0ce8                	addi	a0,sp,604
 122:	0000                	unimp
 124:	0cea                	slli	s9,s9,0x1a
 126:	0000                	unimp
 128:	0cec                	addi	a1,sp,604
 12a:	0000                	unimp
 12c:	0cee                	slli	s9,s9,0x1b
 12e:	0000                	unimp
 130:	0cf0                	addi	a2,sp,604
 132:	0000                	unimp
 134:	0cf2                	slli	s9,s9,0x1c
 136:	0000                	unimp
 138:	0cf4                	addi	a3,sp,604
 13a:	0000                	unimp
 13c:	0cf6                	slli	s9,s9,0x1d
 13e:	0000                	unimp
 140:	0cf8                	addi	a4,sp,604
 142:	0000                	unimp
 144:	0cfa                	slli	s9,s9,0x1e
 146:	0000                	unimp
 148:	0cfc                	addi	a5,sp,604
 14a:	0000                	unimp
 14c:	0cfe                	slli	s9,s9,0x1f
 14e:	0000                	unimp
 150:	0d00                	addi	s0,sp,656
 152:	0000                	unimp
 154:	0d02                	c.slli64	s10
 156:	0000                	unimp
 158:	0d04                	addi	s1,sp,656
 15a:	0000                	unimp
 15c:	0d06                	slli	s10,s10,0x1
 15e:	0000                	unimp
 160:	0d08                	addi	a0,sp,656
 162:	0000                	unimp
 164:	0d0a                	slli	s10,s10,0x2
 166:	0000                	unimp
 168:	0d0c                	addi	a1,sp,656
 16a:	0000                	unimp
 16c:	0d0e                	slli	s10,s10,0x3
 16e:	0000                	unimp
 170:	0d10                	addi	a2,sp,656
 172:	0000                	unimp
 174:	0d12                	slli	s10,s10,0x4
 176:	0000                	unimp
 178:	0d14                	addi	a3,sp,656
 17a:	0000                	unimp
 17c:	0d16                	slli	s10,s10,0x5
 17e:	0000                	unimp
 180:	0d18                	addi	a4,sp,656
 182:	0000                	unimp
 184:	0d1a                	slli	s10,s10,0x6
 186:	0000                	unimp
 188:	0d1c                	addi	a5,sp,656
 18a:	0000                	unimp
 18c:	03b0                	addi	a2,sp,456
 18e:	0000                	unimp
 190:	0d20                	addi	s0,sp,664
 192:	0000                	unimp
 194:	0d22                	slli	s10,s10,0x8
 196:	0000                	unimp
 198:	0d24                	addi	s1,sp,664
 19a:	0000                	unimp
 19c:	0d26                	slli	s10,s10,0x9
 19e:	0000                	unimp
 1a0:	0d28                	addi	a0,sp,664
 1a2:	0000                	unimp
 1a4:	0d2a                	slli	s10,s10,0xa
 1a6:	0000                	unimp
 1a8:	0d2c                	addi	a1,sp,664
 1aa:	0000                	unimp
 1ac:	0d2e                	slli	s10,s10,0xb
 1ae:	0000                	unimp
 1b0:	0d30                	addi	a2,sp,664
 1b2:	0000                	unimp
 1b4:	0d32                	slli	s10,s10,0xc
 1b6:	0000                	unimp
 1b8:	0d34                	addi	a3,sp,664
 1ba:	0000                	unimp
 1bc:	0d36                	slli	s10,s10,0xd
 1be:	0000                	unimp
 1c0:	0d38                	addi	a4,sp,664
 1c2:	0000                	unimp
 1c4:	0d3a                	slli	s10,s10,0xe
 1c6:	0000                	unimp
 1c8:	0d3c                	addi	a5,sp,664
 1ca:	0000                	unimp
 1cc:	0d3e                	slli	s10,s10,0xf
 1ce:	0000                	unimp
 1d0:	0d40                	addi	s0,sp,660
 1d2:	0000                	unimp
 1d4:	0d42                	slli	s10,s10,0x10
	...

Disassembly of section .text:

00000200 <__riscv_save_12>:
     200:	7139                	addi	sp,sp,-64
     202:	4301                	li	t1,0
     204:	c66e                	sw	s11,12(sp)
     206:	a019                	j	20c <__riscv_save_10+0x4>

00000208 <__riscv_save_10>:
     208:	7139                	addi	sp,sp,-64
     20a:	5341                	li	t1,-16
     20c:	c86a                	sw	s10,16(sp)
     20e:	ca66                	sw	s9,20(sp)
     210:	cc62                	sw	s8,24(sp)
     212:	ce5e                	sw	s7,28(sp)
     214:	a019                	j	21a <__riscv_save_4+0x4>

00000216 <__riscv_save_4>:
     216:	7139                	addi	sp,sp,-64
     218:	5301                	li	t1,-32
     21a:	d05a                	sw	s6,32(sp)
     21c:	d256                	sw	s5,36(sp)
     21e:	d452                	sw	s4,40(sp)
     220:	d64e                	sw	s3,44(sp)
     222:	d84a                	sw	s2,48(sp)
     224:	da26                	sw	s1,52(sp)
     226:	dc22                	sw	s0,56(sp)
     228:	de06                	sw	ra,60(sp)
     22a:	40610133          	sub	sp,sp,t1
     22e:	8282                	jr	t0

00000230 <__riscv_save_0>:
     230:	1141                	addi	sp,sp,-16
     232:	c04a                	sw	s2,0(sp)
     234:	c226                	sw	s1,4(sp)
     236:	c422                	sw	s0,8(sp)
     238:	c606                	sw	ra,12(sp)
     23a:	8282                	jr	t0

0000023c <__riscv_restore_12>:
     23c:	4db2                	lw	s11,12(sp)
     23e:	0141                	addi	sp,sp,16

00000240 <__riscv_restore_10>:
     240:	4d02                	lw	s10,0(sp)
     242:	4c92                	lw	s9,4(sp)
     244:	4c22                	lw	s8,8(sp)
     246:	4bb2                	lw	s7,12(sp)
     248:	0141                	addi	sp,sp,16

0000024a <__riscv_restore_4>:
     24a:	4b02                	lw	s6,0(sp)
     24c:	4a92                	lw	s5,4(sp)
     24e:	4a22                	lw	s4,8(sp)
     250:	49b2                	lw	s3,12(sp)
     252:	0141                	addi	sp,sp,16

00000254 <__riscv_restore_0>:
     254:	4902                	lw	s2,0(sp)
     256:	4492                	lw	s1,4(sp)
     258:	4422                	lw	s0,8(sp)
     25a:	40b2                	lw	ra,12(sp)
     25c:	0141                	addi	sp,sp,16
     25e:	8082                	ret

00000260 <USBHS_RCC_Init>:
     260:	fd1ff2ef          	jal	t0,230 <__riscv_save_0>
     264:	4505                	li	a0,1
     266:	03c010ef          	jal	ra,12a2 <RCC_USBCLK48MConfig>
     26a:	4501                	li	a0,0
     26c:	7df000ef          	jal	ra,124a <RCC_USBHSPLLCLKConfig>
     270:	4505                	li	a0,1
     272:	7bf000ef          	jal	ra,1230 <RCC_USBHSConfig>
     276:	4505                	li	a0,1
     278:	7ed000ef          	jal	ra,1264 <RCC_USBHSPLLCKREFCLKConfig>
     27c:	4505                	li	a0,1
     27e:	000010ef          	jal	ra,127e <RCC_USBHSPHYPLLALIVEcmd>
     282:	4585                	li	a1,1
     284:	6505                	lui	a0,0x1
     286:	80050513          	addi	a0,a0,-2048 # 800 <USBHS_IRQHandler+0x450>
     28a:	74d000ef          	jal	ra,11d6 <RCC_AHBPeriphClockCmd>
     28e:	b7d9                	j	254 <__riscv_restore_0>

00000290 <USBHS_Device_Endp_Init>:
     290:	400237b7          	lui	a5,0x40023
     294:	40078793          	addi	a5,a5,1024 # 40023400 <_eusrstack+0x2001b400>
     298:	000a0737          	lui	a4,0xa0
     29c:	0739                	addi	a4,a4,14
     29e:	cb98                	sw	a4,16(a5)
     2a0:	04000713          	li	a4,64
     2a4:	08e79c23          	sh	a4,152(a5)
     2a8:	20000713          	li	a4,512
     2ac:	08e79e23          	sh	a4,156(a5)
     2b0:	0ae79223          	sh	a4,164(a5)
     2b4:	86c18713          	addi	a4,gp,-1940 # 2000007c <USBHS_EP0_Buf>
     2b8:	cfd8                	sw	a4,28(a5)
     2ba:	aac18713          	addi	a4,gp,-1364 # 200002bc <USBHS_EP1_Tx_Buf>
     2be:	cff8                	sw	a4,92(a5)
     2c0:	8ac18713          	addi	a4,gp,-1876 # 200000bc <USBHS_EP1_Rx_Buf>
     2c4:	d398                	sw	a4,32(a5)
     2c6:	82418713          	addi	a4,gp,-2012 # 20000034 <USBHS_EP2_Tx_Buf>
     2ca:	d3b8                	sw	a4,96(a5)
     2cc:	eac18713          	addi	a4,gp,-340 # 200006bc <USBHS_EP3_Tx_Buf>
     2d0:	d3f8                	sw	a4,100(a5)
     2d2:	cac18713          	addi	a4,gp,-852 # 200004bc <USBHS_EP3_Rx_Buf>
     2d6:	d798                	sw	a4,40(a5)
     2d8:	0c079c23          	sh	zero,216(a5)
     2dc:	4709                	li	a4,2
     2de:	0ce78d23          	sb	a4,218(a5)
     2e2:	0c078da3          	sb	zero,219(a5)
     2e6:	0c079e23          	sh	zero,220(a5)
     2ea:	0ce78f23          	sb	a4,222(a5)
     2ee:	0c078fa3          	sb	zero,223(a5)
     2f2:	0e079023          	sh	zero,224(a5)
     2f6:	0ee78123          	sb	a4,226(a5)
     2fa:	0e0781a3          	sb	zero,227(a5)
     2fe:	0e079223          	sh	zero,228(a5)
     302:	0ee78323          	sb	a4,230(a5)
     306:	0e0783a3          	sb	zero,231(a5)
     30a:	200017b7          	lui	a5,0x20001
     30e:	0bc78713          	addi	a4,a5,188 # 200010bc <Vcom>
     312:	6785                	lui	a5,0x1
     314:	97ba                	add	a5,a5,a4
     316:	4705                	li	a4,1
     318:	a0e79823          	sh	a4,-1520(a5) # a10 <USBHS_IRQHandler+0x660>
     31c:	8082                	ret

0000031e <USBHS_Device_Init>:
     31e:	400237b7          	lui	a5,0x40023
     322:	4719                	li	a4,6
     324:	40e78023          	sb	a4,1024(a5) # 40023400 <_eusrstack+0x2001b400>
     328:	200007b7          	lui	a5,0x20000
     32c:	0107a703          	lw	a4,16(a5) # 20000010 <SystemCoreClock>
     330:	3e700793          	li	a5,999
     334:	00e7ff63          	bgeu	a5,a4,352 <USBHS_Device_Init+0x34>
     338:	4701                	li	a4,0
     33a:	20000637          	lui	a2,0x20000
     33e:	3e800693          	li	a3,1000
     342:	0001                	nop
     344:	0705                	addi	a4,a4,1
     346:	01062783          	lw	a5,16(a2) # 20000010 <SystemCoreClock>
     34a:	02d7d7b3          	divu	a5,a5,a3
     34e:	fef76ae3          	bltu	a4,a5,342 <USBHS_Device_Init+0x24>
     352:	ed01                	bnez	a0,36a <USBHS_Device_Init+0x4c>
     354:	400237b7          	lui	a5,0x40023
     358:	40078023          	sb	zero,1024(a5) # 40023400 <_eusrstack+0x2001b400>
     35c:	e000e7b7          	lui	a5,0xe000e
     360:	00200737          	lui	a4,0x200
     364:	18e7a423          	sw	a4,392(a5) # e000e188 <_eusrstack+0xc0006188>
     368:	8082                	ret
     36a:	ec7ff2ef          	jal	t0,230 <__riscv_save_0>
     36e:	40023437          	lui	s0,0x40023
     372:	40044783          	lbu	a5,1024(s0) # 40023400 <_eusrstack+0x2001b400>
     376:	0fb7f793          	andi	a5,a5,251
     37a:	40f40023          	sb	a5,1024(s0)
     37e:	47c1                	li	a5,16
     380:	40f400a3          	sb	a5,1025(s0)
     384:	02900793          	li	a5,41
     388:	40f40023          	sb	a5,1024(s0)
     38c:	02700793          	li	a5,39
     390:	40f40123          	sb	a5,1026(s0)
     394:	3df5                	jal	290 <USBHS_Device_Endp_Init>
     396:	40044783          	lbu	a5,1024(s0)
     39a:	0107e793          	ori	a5,a5,16
     39e:	40f40023          	sb	a5,1024(s0)
     3a2:	e000e7b7          	lui	a5,0xe000e
     3a6:	00200737          	lui	a4,0x200
     3aa:	10e7a423          	sw	a4,264(a5) # e000e108 <_eusrstack+0xc0006108>
     3ae:	b55d                	j	254 <__riscv_restore_0>

000003b0 <USBHS_IRQHandler>:
     3b0:	1101                	addi	sp,sp,-32
     3b2:	ce22                	sw	s0,28(sp)
     3b4:	cc26                	sw	s1,24(sp)
     3b6:	ca4a                	sw	s2,20(sp)
     3b8:	c84e                	sw	s3,16(sp)
     3ba:	c652                	sw	s4,12(sp)
     3bc:	400237b7          	lui	a5,0x40023
     3c0:	40a7c703          	lbu	a4,1034(a5) # 4002340a <_eusrstack+0x2001b40a>
     3c4:	40078793          	addi	a5,a5,1024
     3c8:	0ff77713          	andi	a4,a4,255
     3cc:	00b7c783          	lbu	a5,11(a5)
     3d0:	02077693          	andi	a3,a4,32
     3d4:	60068663          	beqz	a3,9e0 <USBHS_IRQHandler+0x630>
     3d8:	400237b7          	lui	a5,0x40023
     3dc:	4729                	li	a4,10
     3de:	4ce78d23          	sb	a4,1242(a5) # 400234da <_eusrstack+0x2001b4da>
     3e2:	4ce78da3          	sb	a4,1243(a5)
     3e6:	83018713          	addi	a4,gp,-2000 # 20000040 <USBHS_Setup>
     3ea:	86c18693          	addi	a3,gp,-1940 # 2000007c <USBHS_EP0_Buf>
     3ee:	429c                	lw	a5,0(a3)
     3f0:	c31c                	sw	a5,0(a4)
     3f2:	42d4                	lw	a3,4(a3)
     3f4:	c354                	sw	a3,4(a4)
     3f6:	0ff7f793          	andi	a5,a5,255
     3fa:	0607f713          	andi	a4,a5,96
     3fe:	44071c63          	bnez	a4,856 <USBHS_IRQHandler+0x4a6>
     402:	83018713          	addi	a4,gp,-2000 # 20000040 <USBHS_Setup>
     406:	00174603          	lbu	a2,1(a4) # 200001 <_data_lma+0x1fadf1>
     40a:	46ad                	li	a3,11
     40c:	56c6ef63          	bltu	a3,a2,98a <USBHS_IRQHandler+0x5da>
     410:	00261713          	slli	a4,a2,0x2
     414:	6695                	lui	a3,0x5
     416:	e8c68693          	addi	a3,a3,-372 # 4e8c <memcpy+0xb6>
     41a:	9736                	add	a4,a4,a3
     41c:	4318                	lw	a4,0(a4)
     41e:	8702                	jr	a4
     420:	8321d683          	lhu	a3,-1998(gp) # 20000042 <USBHS_Setup+0x2>
     424:	0086d793          	srli	a5,a3,0x8
     428:	01079613          	slli	a2,a5,0x10
     42c:	8241                	srli	a2,a2,0x10
     42e:	02200713          	li	a4,34
     432:	1ec76863          	bltu	a4,a2,622 <USBHS_IRQHandler+0x272>
     436:	078a                	slli	a5,a5,0x2
     438:	6715                	lui	a4,0x5
     43a:	ebc70713          	addi	a4,a4,-324 # 4ebc <memcpy+0xe6>
     43e:	97ba                	add	a5,a5,a4
     440:	439c                	lw	a5,0(a5)
     442:	8782                	jr	a5
     444:	6795                	lui	a5,0x5
     446:	0ec78693          	addi	a3,a5,236 # 50ec <USB_DevDesc>
     44a:	82d1ac23          	sw	a3,-1992(gp) # 20000048 <pUSBHS_Descr>
     44e:	0ec7c783          	lbu	a5,236(a5)
     452:	4901                	li	s2,0
     454:	8361d703          	lhu	a4,-1994(gp) # 20000046 <USBHS_Setup+0x6>
     458:	00e7f463          	bgeu	a5,a4,460 <USBHS_IRQHandler+0xb0>
     45c:	82f19b23          	sh	a5,-1994(gp) # 20000046 <USBHS_Setup+0x6>
     460:	8381a483          	lw	s1,-1992(gp) # 20000048 <pUSBHS_Descr>
     464:	8361d783          	lhu	a5,-1994(gp) # 20000046 <USBHS_Setup+0x6>
     468:	01079693          	slli	a3,a5,0x10
     46c:	82c1                	srli	a3,a3,0x10
     46e:	04000713          	li	a4,64
     472:	00d77463          	bgeu	a4,a3,47a <USBHS_IRQHandler+0xca>
     476:	04000793          	li	a5,64
     47a:	01079413          	slli	s0,a5,0x10
     47e:	8041                	srli	s0,s0,0x10
     480:	8622                	mv	a2,s0
     482:	85a6                	mv	a1,s1
     484:	86c18513          	addi	a0,gp,-1940 # 2000007c <USBHS_EP0_Buf>
     488:	14f040ef          	jal	ra,4dd6 <memcpy>
     48c:	008487b3          	add	a5,s1,s0
     490:	82f1ac23          	sw	a5,-1992(gp) # 20000048 <pUSBHS_Descr>
     494:	a1f9                	j	962 <USBHS_IRQHandler+0x5b2>
     496:	400237b7          	lui	a5,0x40023
     49a:	40078793          	addi	a5,a5,1024 # 40023400 <_eusrstack+0x2001b400>
     49e:	0087c783          	lbu	a5,8(a5)
     4a2:	8b8d                	andi	a5,a5,3
     4a4:	4705                	li	a4,1
     4a6:	02e78363          	beq	a5,a4,4cc <USBHS_IRQHandler+0x11c>
     4aa:	820181a3          	sb	zero,-2013(gp) # 20000033 <USBHS_DevSpeed>
     4ae:	6715                	lui	a4,0x5
     4b0:	01470713          	addi	a4,a4,20 # 5014 <USB_CfgDesc_FS>
     4b4:	82e1ac23          	sw	a4,-1992(gp) # 20000048 <pUSBHS_Descr>
     4b8:	00374783          	lbu	a5,3(a4)
     4bc:	07a2                	slli	a5,a5,0x8
     4be:	00274703          	lbu	a4,2(a4)
     4c2:	97ba                	add	a5,a5,a4
     4c4:	07c2                	slli	a5,a5,0x10
     4c6:	83c1                	srli	a5,a5,0x10
     4c8:	4901                	li	s2,0
     4ca:	b769                	j	454 <USBHS_IRQHandler+0xa4>
     4cc:	82e181a3          	sb	a4,-2013(gp) # 20000033 <USBHS_DevSpeed>
     4d0:	6715                	lui	a4,0x5
     4d2:	08070713          	addi	a4,a4,128 # 5080 <USB_CfgDesc_HS>
     4d6:	82e1ac23          	sw	a4,-1992(gp) # 20000048 <pUSBHS_Descr>
     4da:	00374783          	lbu	a5,3(a4)
     4de:	07a2                	slli	a5,a5,0x8
     4e0:	00274703          	lbu	a4,2(a4)
     4e4:	97ba                	add	a5,a5,a4
     4e6:	07c2                	slli	a5,a5,0x10
     4e8:	83c1                	srli	a5,a5,0x10
     4ea:	4901                	li	s2,0
     4ec:	b7a5                	j	454 <USBHS_IRQHandler+0xa4>
     4ee:	8231c783          	lbu	a5,-2013(gp) # 20000033 <USBHS_DevSpeed>
     4f2:	0ff7f793          	andi	a5,a5,255
     4f6:	4705                	li	a4,1
     4f8:	02e78163          	beq	a5,a4,51a <USBHS_IRQHandler+0x16a>
     4fc:	6715                	lui	a4,0x5
     4fe:	08070713          	addi	a4,a4,128 # 5080 <USB_CfgDesc_HS>
     502:	82e1ac23          	sw	a4,-1992(gp) # 20000048 <pUSBHS_Descr>
     506:	00374783          	lbu	a5,3(a4)
     50a:	07a2                	slli	a5,a5,0x8
     50c:	00274703          	lbu	a4,2(a4)
     510:	97ba                	add	a5,a5,a4
     512:	07c2                	slli	a5,a5,0x10
     514:	83c1                	srli	a5,a5,0x10
     516:	4901                	li	s2,0
     518:	bf35                	j	454 <USBHS_IRQHandler+0xa4>
     51a:	6715                	lui	a4,0x5
     51c:	01470713          	addi	a4,a4,20 # 5014 <USB_CfgDesc_FS>
     520:	82e1ac23          	sw	a4,-1992(gp) # 20000048 <pUSBHS_Descr>
     524:	00374783          	lbu	a5,3(a4)
     528:	07a2                	slli	a5,a5,0x8
     52a:	00274703          	lbu	a4,2(a4)
     52e:	97ba                	add	a5,a5,a4
     530:	07c2                	slli	a5,a5,0x10
     532:	83c1                	srli	a5,a5,0x10
     534:	4901                	li	s2,0
     536:	bf39                	j	454 <USBHS_IRQHandler+0xa4>
     538:	8231c783          	lbu	a5,-2013(gp) # 20000033 <USBHS_DevSpeed>
     53c:	0ff7f793          	andi	a5,a5,255
     540:	4705                	li	a4,1
     542:	00e78c63          	beq	a5,a4,55a <USBHS_IRQHandler+0x1aa>
     546:	6795                	lui	a5,0x5
     548:	fd478793          	addi	a5,a5,-44 # 4fd4 <HID_ReportDesc_FS>
     54c:	82f1ac23          	sw	a5,-1992(gp) # 20000048 <pUSBHS_Descr>
     550:	6795                	lui	a5,0x5
     552:	02d7c783          	lbu	a5,45(a5) # 502d <USB_CfgDesc_FS+0x19>
     556:	4901                	li	s2,0
     558:	bdf5                	j	454 <USBHS_IRQHandler+0xa4>
     55a:	6795                	lui	a5,0x5
     55c:	ff478793          	addi	a5,a5,-12 # 4ff4 <HID_ReportDesc_HS>
     560:	82f1ac23          	sw	a5,-1992(gp) # 20000048 <pUSBHS_Descr>
     564:	6795                	lui	a5,0x5
     566:	0997c783          	lbu	a5,153(a5) # 5099 <USB_CfgDesc_HS+0x19>
     56a:	4901                	li	s2,0
     56c:	b5e5                	j	454 <USBHS_IRQHandler+0xa4>
     56e:	8231c783          	lbu	a5,-2013(gp) # 20000033 <USBHS_DevSpeed>
     572:	0ff7f793          	andi	a5,a5,255
     576:	4705                	li	a4,1
     578:	00e78c63          	beq	a5,a4,590 <USBHS_IRQHandler+0x1e0>
     57c:	6795                	lui	a5,0x5
     57e:	02678793          	addi	a5,a5,38 # 5026 <USB_CfgDesc_FS+0x12>
     582:	82f1ac23          	sw	a5,-1992(gp) # 20000048 <pUSBHS_Descr>
     586:	6795                	lui	a5,0x5
     588:	0267c783          	lbu	a5,38(a5) # 5026 <USB_CfgDesc_FS+0x12>
     58c:	4901                	li	s2,0
     58e:	b5d9                	j	454 <USBHS_IRQHandler+0xa4>
     590:	6795                	lui	a5,0x5
     592:	09278793          	addi	a5,a5,146 # 5092 <USB_CfgDesc_HS+0x12>
     596:	82f1ac23          	sw	a5,-1992(gp) # 20000048 <pUSBHS_Descr>
     59a:	6795                	lui	a5,0x5
     59c:	0927c783          	lbu	a5,146(a5) # 5092 <USB_CfgDesc_HS+0x12>
     5a0:	4901                	li	s2,0
     5a2:	bd4d                	j	454 <USBHS_IRQHandler+0xa4>
     5a4:	0ff6f693          	andi	a3,a3,255
     5a8:	4785                	li	a5,1
     5aa:	02f68863          	beq	a3,a5,5da <USBHS_IRQHandler+0x22a>
     5ae:	01069793          	slli	a5,a3,0x10
     5b2:	87c1                	srai	a5,a5,0x10
     5b4:	cb99                	beqz	a5,5ca <USBHS_IRQHandler+0x21a>
     5b6:	4789                	li	a5,2
     5b8:	02f68a63          	beq	a3,a5,5ec <USBHS_IRQHandler+0x23c>
     5bc:	478d                	li	a5,3
     5be:	04f68063          	beq	a3,a5,5fe <USBHS_IRQHandler+0x24e>
     5c2:	4781                	li	a5,0
     5c4:	0ff00913          	li	s2,255
     5c8:	b571                	j	454 <USBHS_IRQHandler+0xa4>
     5ca:	81418693          	addi	a3,gp,-2028 # 20000024 <USB_StringLangID>
     5ce:	82d1ac23          	sw	a3,-1992(gp) # 20000048 <pUSBHS_Descr>
     5d2:	8141c783          	lbu	a5,-2028(gp) # 20000024 <USB_StringLangID>
     5d6:	4901                	li	s2,0
     5d8:	bdb5                	j	454 <USBHS_IRQHandler+0xa4>
     5da:	6795                	lui	a5,0x5
     5dc:	14c78693          	addi	a3,a5,332 # 514c <USB_StringVendor>
     5e0:	82d1ac23          	sw	a3,-1992(gp) # 20000048 <pUSBHS_Descr>
     5e4:	14c7c783          	lbu	a5,332(a5)
     5e8:	4901                	li	s2,0
     5ea:	b5ad                	j	454 <USBHS_IRQHandler+0xa4>
     5ec:	6795                	lui	a5,0x5
     5ee:	10c78693          	addi	a3,a5,268 # 510c <USB_StringProduct>
     5f2:	82d1ac23          	sw	a3,-1992(gp) # 20000048 <pUSBHS_Descr>
     5f6:	10c7c783          	lbu	a5,268(a5)
     5fa:	4901                	li	s2,0
     5fc:	bda1                	j	454 <USBHS_IRQHandler+0xa4>
     5fe:	6795                	lui	a5,0x5
     600:	13078693          	addi	a3,a5,304 # 5130 <USB_StringSerialNbr>
     604:	82d1ac23          	sw	a3,-1992(gp) # 20000048 <pUSBHS_Descr>
     608:	1307c783          	lbu	a5,304(a5)
     60c:	4901                	li	s2,0
     60e:	b599                	j	454 <USBHS_IRQHandler+0xa4>
     610:	6795                	lui	a5,0x5
     612:	10078693          	addi	a3,a5,256 # 5100 <USB_QualifierDesc>
     616:	82d1ac23          	sw	a3,-1992(gp) # 20000048 <pUSBHS_Descr>
     61a:	1007c783          	lbu	a5,256(a5)
     61e:	4901                	li	s2,0
     620:	bd15                	j	454 <USBHS_IRQHandler+0xa4>
     622:	4781                	li	a5,0
     624:	0ff00913          	li	s2,255
     628:	b535                	j	454 <USBHS_IRQHandler+0xa4>
     62a:	8321c703          	lbu	a4,-1998(gp) # 20000042 <USBHS_Setup+0x2>
     62e:	82e18023          	sb	a4,-2016(gp) # 20000030 <_edata>
     632:	ae25                	j	96a <USBHS_IRQHandler+0x5ba>
     634:	8211c683          	lbu	a3,-2015(gp) # 20000031 <USBHS_DevConfig>
     638:	86d18623          	sb	a3,-1940(gp) # 2000007c <USBHS_EP0_Buf>
     63c:	4685                	li	a3,1
     63e:	82d19b23          	sh	a3,-1994(gp) # 20000046 <USBHS_Setup+0x6>
     642:	07e2                	slli	a5,a5,0x18
     644:	87e1                	srai	a5,a5,0x18
     646:	3407ca63          	bltz	a5,99a <USBHS_IRQHandler+0x5ea>
     64a:	400237b7          	lui	a5,0x40023
     64e:	4721                	li	a4,8
     650:	4ce78da3          	sb	a4,1243(a5) # 400234db <_eusrstack+0x2001b4db>
     654:	a6b5                	j	9c0 <USBHS_IRQHandler+0x610>
     656:	8321c703          	lbu	a4,-1998(gp) # 20000042 <USBHS_Setup+0x2>
     65a:	82e180a3          	sb	a4,-2015(gp) # 20000031 <USBHS_DevConfig>
     65e:	4705                	li	a4,1
     660:	82e18123          	sb	a4,-2014(gp) # 20000032 <USBHS_DevEnumStatus>
     664:	a619                	j	96a <USBHS_IRQHandler+0x5ba>
     666:	86018623          	sb	zero,-1940(gp) # 2000007c <USBHS_EP0_Buf>
     66a:	4685                	li	a3,1
     66c:	82d19b23          	sh	a3,-1994(gp) # 20000046 <USBHS_Setup+0x6>
     670:	bfc9                	j	642 <USBHS_IRQHandler+0x292>
     672:	8bfd                	andi	a5,a5,31
     674:	4709                	li	a4,2
     676:	2ee79a63          	bne	a5,a4,96a <USBHS_IRQHandler+0x5ba>
     67a:	8321c783          	lbu	a5,-1998(gp) # 20000042 <USBHS_Setup+0x2>
     67e:	2e079663          	bnez	a5,96a <USBHS_IRQHandler+0x5ba>
     682:	8341c783          	lbu	a5,-1996(gp) # 20000044 <USBHS_Setup+0x4>
     686:	08100713          	li	a4,129
     68a:	02e78d63          	beq	a5,a4,6c4 <USBHS_IRQHandler+0x314>
     68e:	02f77063          	bgeu	a4,a5,6ae <USBHS_IRQHandler+0x2fe>
     692:	08200713          	li	a4,130
     696:	04e78263          	beq	a5,a4,6da <USBHS_IRQHandler+0x32a>
     69a:	08300713          	li	a4,131
     69e:	2ee79663          	bne	a5,a4,98a <USBHS_IRQHandler+0x5da>
     6a2:	400237b7          	lui	a5,0x40023
     6a6:	4709                	li	a4,2
     6a8:	4ee78323          	sb	a4,1254(a5) # 400234e6 <_eusrstack+0x2001b4e6>
     6ac:	ac7d                	j	96a <USBHS_IRQHandler+0x5ba>
     6ae:	4705                	li	a4,1
     6b0:	02e78063          	beq	a5,a4,6d0 <USBHS_IRQHandler+0x320>
     6b4:	470d                	li	a4,3
     6b6:	2ce79a63          	bne	a5,a4,98a <USBHS_IRQHandler+0x5da>
     6ba:	400237b7          	lui	a5,0x40023
     6be:	4e0783a3          	sb	zero,1255(a5) # 400234e7 <_eusrstack+0x2001b4e7>
     6c2:	a465                	j	96a <USBHS_IRQHandler+0x5ba>
     6c4:	400237b7          	lui	a5,0x40023
     6c8:	4709                	li	a4,2
     6ca:	4ce78f23          	sb	a4,1246(a5) # 400234de <_eusrstack+0x2001b4de>
     6ce:	ac71                	j	96a <USBHS_IRQHandler+0x5ba>
     6d0:	400237b7          	lui	a5,0x40023
     6d4:	4c078fa3          	sb	zero,1247(a5) # 400234df <_eusrstack+0x2001b4df>
     6d8:	ac49                	j	96a <USBHS_IRQHandler+0x5ba>
     6da:	400237b7          	lui	a5,0x40023
     6de:	4709                	li	a4,2
     6e0:	4ee78123          	sb	a4,1250(a5) # 400234e2 <_eusrstack+0x2001b4e2>
     6e4:	a459                	j	96a <USBHS_IRQHandler+0x5ba>
     6e6:	8bfd                	andi	a5,a5,31
     6e8:	4709                	li	a4,2
     6ea:	28e79063          	bne	a5,a4,96a <USBHS_IRQHandler+0x5ba>
     6ee:	8321c783          	lbu	a5,-1998(gp) # 20000042 <USBHS_Setup+0x2>
     6f2:	26079c63          	bnez	a5,96a <USBHS_IRQHandler+0x5ba>
     6f6:	8341c783          	lbu	a5,-1996(gp) # 20000044 <USBHS_Setup+0x4>
     6fa:	08100713          	li	a4,129
     6fe:	04e78463          	beq	a5,a4,746 <USBHS_IRQHandler+0x396>
     702:	02f77363          	bgeu	a4,a5,728 <USBHS_IRQHandler+0x378>
     706:	08200713          	li	a4,130
     70a:	06e78063          	beq	a5,a4,76a <USBHS_IRQHandler+0x3ba>
     70e:	08300713          	li	a4,131
     712:	26e79c63          	bne	a5,a4,98a <USBHS_IRQHandler+0x5da>
     716:	400237b7          	lui	a5,0x40023
     71a:	4e67c703          	lbu	a4,1254(a5) # 400234e6 <_eusrstack+0x2001b4e6>
     71e:	00376713          	ori	a4,a4,3
     722:	4ee78323          	sb	a4,1254(a5)
     726:	a491                	j	96a <USBHS_IRQHandler+0x5ba>
     728:	4705                	li	a4,1
     72a:	02e78763          	beq	a5,a4,758 <USBHS_IRQHandler+0x3a8>
     72e:	470d                	li	a4,3
     730:	24e79d63          	bne	a5,a4,98a <USBHS_IRQHandler+0x5da>
     734:	400237b7          	lui	a5,0x40023
     738:	4e77c703          	lbu	a4,1255(a5) # 400234e7 <_eusrstack+0x2001b4e7>
     73c:	00376713          	ori	a4,a4,3
     740:	4ee783a3          	sb	a4,1255(a5)
     744:	a41d                	j	96a <USBHS_IRQHandler+0x5ba>
     746:	400237b7          	lui	a5,0x40023
     74a:	4de7c703          	lbu	a4,1246(a5) # 400234de <_eusrstack+0x2001b4de>
     74e:	00376713          	ori	a4,a4,3
     752:	4ce78f23          	sb	a4,1246(a5)
     756:	ac11                	j	96a <USBHS_IRQHandler+0x5ba>
     758:	400237b7          	lui	a5,0x40023
     75c:	4df7c703          	lbu	a4,1247(a5) # 400234df <_eusrstack+0x2001b4df>
     760:	00376713          	ori	a4,a4,3
     764:	4ce78fa3          	sb	a4,1247(a5)
     768:	a409                	j	96a <USBHS_IRQHandler+0x5ba>
     76a:	400237b7          	lui	a5,0x40023
     76e:	4e27c703          	lbu	a4,1250(a5) # 400234e2 <_eusrstack+0x2001b4e2>
     772:	00376713          	ori	a4,a4,3
     776:	4ee78123          	sb	a4,1250(a5)
     77a:	aac5                	j	96a <USBHS_IRQHandler+0x5ba>
     77c:	86018623          	sb	zero,-1940(gp) # 2000007c <USBHS_EP0_Buf>
     780:	8bfd                	andi	a5,a5,31
     782:	4709                	li	a4,2
     784:	4901                	li	s2,0
     786:	00e78863          	beq	a5,a4,796 <USBHS_IRQHandler+0x3e6>
     78a:	860186a3          	sb	zero,-1939(gp) # 2000007d <USBHS_EP0_Buf+0x1>
     78e:	4709                	li	a4,2
     790:	82e19b23          	sh	a4,-1994(gp) # 20000046 <USBHS_Setup+0x6>
     794:	a2f9                	j	962 <USBHS_IRQHandler+0x5b2>
     796:	8341c783          	lbu	a5,-1996(gp) # 20000044 <USBHS_Setup+0x4>
     79a:	08100713          	li	a4,129
     79e:	06e78263          	beq	a5,a4,802 <USBHS_IRQHandler+0x452>
     7a2:	02f76863          	bltu	a4,a5,7d2 <USBHS_IRQHandler+0x422>
     7a6:	4705                	li	a4,1
     7a8:	06e78b63          	beq	a5,a4,81e <USBHS_IRQHandler+0x46e>
     7ac:	470d                	li	a4,3
     7ae:	0ff00913          	li	s2,255
     7b2:	fce79ce3          	bne	a5,a4,78a <USBHS_IRQHandler+0x3da>
     7b6:	400237b7          	lui	a5,0x40023
     7ba:	40078793          	addi	a5,a5,1024 # 40023400 <_eusrstack+0x2001b400>
     7be:	0e77c783          	lbu	a5,231(a5)
     7c2:	8b8d                	andi	a5,a5,3
     7c4:	17f5                	addi	a5,a5,-3
     7c6:	0017b793          	seqz	a5,a5
     7ca:	86f18623          	sb	a5,-1940(gp) # 2000007c <USBHS_EP0_Buf>
     7ce:	4901                	li	s2,0
     7d0:	bf6d                	j	78a <USBHS_IRQHandler+0x3da>
     7d2:	08200713          	li	a4,130
     7d6:	06e78263          	beq	a5,a4,83a <USBHS_IRQHandler+0x48a>
     7da:	08300713          	li	a4,131
     7de:	0ff00913          	li	s2,255
     7e2:	fae794e3          	bne	a5,a4,78a <USBHS_IRQHandler+0x3da>
     7e6:	400237b7          	lui	a5,0x40023
     7ea:	40078793          	addi	a5,a5,1024 # 40023400 <_eusrstack+0x2001b400>
     7ee:	0e67c783          	lbu	a5,230(a5)
     7f2:	8b8d                	andi	a5,a5,3
     7f4:	17f5                	addi	a5,a5,-3
     7f6:	0017b793          	seqz	a5,a5
     7fa:	86f18623          	sb	a5,-1940(gp) # 2000007c <USBHS_EP0_Buf>
     7fe:	4901                	li	s2,0
     800:	b769                	j	78a <USBHS_IRQHandler+0x3da>
     802:	400237b7          	lui	a5,0x40023
     806:	40078793          	addi	a5,a5,1024 # 40023400 <_eusrstack+0x2001b400>
     80a:	0de7c783          	lbu	a5,222(a5)
     80e:	8b8d                	andi	a5,a5,3
     810:	17f5                	addi	a5,a5,-3
     812:	0017b793          	seqz	a5,a5
     816:	86f18623          	sb	a5,-1940(gp) # 2000007c <USBHS_EP0_Buf>
     81a:	4901                	li	s2,0
     81c:	b7bd                	j	78a <USBHS_IRQHandler+0x3da>
     81e:	400237b7          	lui	a5,0x40023
     822:	40078793          	addi	a5,a5,1024 # 40023400 <_eusrstack+0x2001b400>
     826:	0df7c783          	lbu	a5,223(a5)
     82a:	8b8d                	andi	a5,a5,3
     82c:	17f5                	addi	a5,a5,-3
     82e:	0017b793          	seqz	a5,a5
     832:	86f18623          	sb	a5,-1940(gp) # 2000007c <USBHS_EP0_Buf>
     836:	4901                	li	s2,0
     838:	bf89                	j	78a <USBHS_IRQHandler+0x3da>
     83a:	400237b7          	lui	a5,0x40023
     83e:	40078793          	addi	a5,a5,1024 # 40023400 <_eusrstack+0x2001b400>
     842:	0e27c783          	lbu	a5,226(a5)
     846:	8b8d                	andi	a5,a5,3
     848:	17f5                	addi	a5,a5,-3
     84a:	0017b793          	seqz	a5,a5
     84e:	86f18623          	sb	a5,-1940(gp) # 2000007c <USBHS_EP0_Buf>
     852:	4901                	li	s2,0
     854:	bf1d                	j	78a <USBHS_IRQHandler+0x3da>
     856:	0207f793          	andi	a5,a5,32
     85a:	0ff00913          	li	s2,255
     85e:	0c078863          	beqz	a5,92e <USBHS_IRQHandler+0x57e>
     862:	83018793          	addi	a5,gp,-2000 # 20000040 <USBHS_Setup>
     866:	0017c683          	lbu	a3,1(a5)
     86a:	02200713          	li	a4,34
     86e:	00d76a63          	bltu	a4,a3,882 <USBHS_IRQHandler+0x4d2>
     872:	00269793          	slli	a5,a3,0x2
     876:	6715                	lui	a4,0x5
     878:	f4870713          	addi	a4,a4,-184 # 4f48 <memcpy+0x172>
     87c:	97ba                	add	a5,a5,a4
     87e:	439c                	lw	a5,0(a5)
     880:	8782                	jr	a5
     882:	0ff00913          	li	s2,255
     886:	a065                	j	92e <USBHS_IRQHandler+0x57e>
     888:	8231c783          	lbu	a5,-2013(gp) # 20000033 <USBHS_DevSpeed>
     88c:	0ff7f793          	andi	a5,a5,255
     890:	4705                	li	a4,1
     892:	02e78863          	beq	a5,a4,8c2 <USBHS_IRQHandler+0x512>
     896:	8361d603          	lhu	a2,-1994(gp) # 20000046 <USBHS_Setup+0x6>
     89a:	01061713          	slli	a4,a2,0x10
     89e:	8341                	srli	a4,a4,0x10
     8a0:	04000793          	li	a5,64
     8a4:	00e7f463          	bgeu	a5,a4,8ac <USBHS_IRQHandler+0x4fc>
     8a8:	04000613          	li	a2,64
     8ac:	0642                	slli	a2,a2,0x10
     8ae:	8241                	srli	a2,a2,0x10
     8b0:	6595                	lui	a1,0x5
     8b2:	fd458593          	addi	a1,a1,-44 # 4fd4 <HID_ReportDesc_FS>
     8b6:	86c18513          	addi	a0,gp,-1940 # 2000007c <USBHS_EP0_Buf>
     8ba:	51c040ef          	jal	ra,4dd6 <memcpy>
     8be:	4901                	li	s2,0
     8c0:	a0bd                	j	92e <USBHS_IRQHandler+0x57e>
     8c2:	8361d603          	lhu	a2,-1994(gp) # 20000046 <USBHS_Setup+0x6>
     8c6:	01061713          	slli	a4,a2,0x10
     8ca:	8341                	srli	a4,a4,0x10
     8cc:	04000793          	li	a5,64
     8d0:	00e7f463          	bgeu	a5,a4,8d8 <USBHS_IRQHandler+0x528>
     8d4:	04000613          	li	a2,64
     8d8:	0642                	slli	a2,a2,0x10
     8da:	8241                	srli	a2,a2,0x10
     8dc:	6595                	lui	a1,0x5
     8de:	ff458593          	addi	a1,a1,-12 # 4ff4 <HID_ReportDesc_HS>
     8e2:	86c18513          	addi	a0,gp,-1940 # 2000007c <USBHS_EP0_Buf>
     8e6:	4f0040ef          	jal	ra,4dd6 <memcpy>
     8ea:	4901                	li	s2,0
     8ec:	a089                	j	92e <USBHS_IRQHandler+0x57e>
     8ee:	8321d783          	lhu	a5,-1998(gp) # 20000042 <USBHS_Setup+0x2>
     8f2:	83a1                	srli	a5,a5,0x8
     8f4:	82f18623          	sb	a5,-2004(gp) # 2000003c <USBHS_HID_Idle>
     8f8:	4901                	li	s2,0
     8fa:	a815                	j	92e <USBHS_IRQHandler+0x57e>
     8fc:	82c1c703          	lbu	a4,-2004(gp) # 2000003c <USBHS_HID_Idle>
     900:	86e18623          	sb	a4,-1940(gp) # 2000007c <USBHS_EP0_Buf>
     904:	4901                	li	s2,0
     906:	a025                	j	92e <USBHS_IRQHandler+0x57e>
     908:	8321c703          	lbu	a4,-1998(gp) # 20000042 <USBHS_Setup+0x2>
     90c:	82e186a3          	sb	a4,-2003(gp) # 2000003d <USBHS_HID_Protocol>
     910:	4901                	li	s2,0
     912:	a831                	j	92e <USBHS_IRQHandler+0x57e>
     914:	82d1c703          	lbu	a4,-2003(gp) # 2000003d <USBHS_HID_Protocol>
     918:	86e18623          	sb	a4,-1940(gp) # 2000007c <USBHS_EP0_Buf>
     91c:	4901                	li	s2,0
     91e:	a801                	j	92e <USBHS_IRQHandler+0x57e>
     920:	80c18793          	addi	a5,gp,-2036 # 2000001c <LineCfg>
     924:	82f1ac23          	sw	a5,-1992(gp) # 20000048 <pUSBHS_Descr>
     928:	4901                	li	s2,0
     92a:	a011                	j	92e <USBHS_IRQHandler+0x57e>
     92c:	4901                	li	s2,0
     92e:	8381a483          	lw	s1,-1992(gp) # 20000048 <pUSBHS_Descr>
     932:	8361d603          	lhu	a2,-1994(gp) # 20000046 <USBHS_Setup+0x6>
     936:	01061713          	slli	a4,a2,0x10
     93a:	8341                	srli	a4,a4,0x10
     93c:	04000793          	li	a5,64
     940:	00e7f463          	bgeu	a5,a4,948 <USBHS_IRQHandler+0x598>
     944:	04000613          	li	a2,64
     948:	01061413          	slli	s0,a2,0x10
     94c:	8041                	srli	s0,s0,0x10
     94e:	8622                	mv	a2,s0
     950:	85a6                	mv	a1,s1
     952:	86c18513          	addi	a0,gp,-1940 # 2000007c <USBHS_EP0_Buf>
     956:	480040ef          	jal	ra,4dd6 <memcpy>
     95a:	00848633          	add	a2,s1,s0
     95e:	82c1ac23          	sw	a2,-1992(gp) # 20000048 <pUSBHS_Descr>
     962:	0ff00793          	li	a5,255
     966:	02f90263          	beq	s2,a5,98a <USBHS_IRQHandler+0x5da>
     96a:	83018783          	lb	a5,-2000(gp) # 20000040 <USBHS_Setup>
     96e:	0207c663          	bltz	a5,99a <USBHS_IRQHandler+0x5ea>
     972:	8361d783          	lhu	a5,-1994(gp) # 20000046 <USBHS_Setup+0x6>
     976:	cc079ae3          	bnez	a5,64a <USBHS_IRQHandler+0x29a>
     97a:	400237b7          	lui	a5,0x40023
     97e:	4c079c23          	sh	zero,1240(a5) # 400234d8 <_eusrstack+0x2001b4d8>
     982:	4721                	li	a4,8
     984:	4ce78d23          	sb	a4,1242(a5)
     988:	a825                	j	9c0 <USBHS_IRQHandler+0x610>
     98a:	400237b7          	lui	a5,0x40023
     98e:	472d                	li	a4,11
     990:	4ce78d23          	sb	a4,1242(a5) # 400234da <_eusrstack+0x2001b4da>
     994:	4ce78da3          	sb	a4,1243(a5)
     998:	a025                	j	9c0 <USBHS_IRQHandler+0x610>
     99a:	8361d783          	lhu	a5,-1994(gp) # 20000046 <USBHS_Setup+0x6>
     99e:	873e                	mv	a4,a5
     9a0:	04000693          	li	a3,64
     9a4:	00f6f463          	bgeu	a3,a5,9ac <USBHS_IRQHandler+0x5fc>
     9a8:	04000713          	li	a4,64
     9ac:	8f99                	sub	a5,a5,a4
     9ae:	82f19b23          	sh	a5,-1994(gp) # 20000046 <USBHS_Setup+0x6>
     9b2:	400237b7          	lui	a5,0x40023
     9b6:	4ce79c23          	sh	a4,1240(a5) # 400234d8 <_eusrstack+0x2001b4d8>
     9ba:	4721                	li	a4,8
     9bc:	4ce78d23          	sb	a4,1242(a5)
     9c0:	400237b7          	lui	a5,0x40023
     9c4:	02000713          	li	a4,32
     9c8:	40e78523          	sb	a4,1034(a5) # 4002340a <_eusrstack+0x2001b40a>
     9cc:	40078793          	addi	a5,a5,1024
     9d0:	4472                	lw	s0,28(sp)
     9d2:	44e2                	lw	s1,24(sp)
     9d4:	4952                	lw	s2,20(sp)
     9d6:	49c2                	lw	s3,16(sp)
     9d8:	4a32                	lw	s4,12(sp)
     9da:	6105                	addi	sp,sp,32
     9dc:	30200073          	mret
     9e0:	0ff7f793          	andi	a5,a5,255
     9e4:	00277693          	andi	a3,a4,2
     9e8:	26068563          	beqz	a3,c52 <USBHS_IRQHandler+0x8a2>
     9ec:	0307f713          	andi	a4,a5,48
     9f0:	14070463          	beqz	a4,b38 <USBHS_IRQHandler+0x788>
     9f4:	02000693          	li	a3,32
     9f8:	02d71063          	bne	a4,a3,a18 <USBHS_IRQHandler+0x668>
     9fc:	8bbd                	andi	a5,a5,15
     9fe:	4705                	li	a4,1
     a00:	0ae78e63          	beq	a5,a4,abc <USBHS_IRQHandler+0x70c>
     a04:	01879713          	slli	a4,a5,0x18
     a08:	8761                	srai	a4,a4,0x18
     a0a:	cf19                	beqz	a4,a28 <USBHS_IRQHandler+0x678>
     a0c:	4709                	li	a4,2
     a0e:	0ce78a63          	beq	a5,a4,ae2 <USBHS_IRQHandler+0x732>
     a12:	470d                	li	a4,3
     a14:	0ee78863          	beq	a5,a4,b04 <USBHS_IRQHandler+0x754>
     a18:	400237b7          	lui	a5,0x40023
     a1c:	4709                	li	a4,2
     a1e:	40e78523          	sb	a4,1034(a5) # 4002340a <_eusrstack+0x2001b40a>
     a22:	40078793          	addi	a5,a5,1024
     a26:	b76d                	j	9d0 <USBHS_IRQHandler+0x620>
     a28:	8361d403          	lhu	s0,-1994(gp) # 20000046 <USBHS_Setup+0x6>
     a2c:	e411                	bnez	s0,a38 <USBHS_IRQHandler+0x688>
     a2e:	400237b7          	lui	a5,0x40023
     a32:	4721                	li	a4,8
     a34:	4ce78da3          	sb	a4,1243(a5) # 400234db <_eusrstack+0x2001b4db>
     a38:	8301c783          	lbu	a5,-2000(gp) # 20000040 <USBHS_Setup>
     a3c:	0607f793          	andi	a5,a5,96
     a40:	ffe1                	bnez	a5,a18 <USBHS_IRQHandler+0x668>
     a42:	8311c783          	lbu	a5,-1999(gp) # 20000041 <USBHS_Setup+0x1>
     a46:	4715                	li	a4,5
     a48:	04e78c63          	beq	a5,a4,aa0 <USBHS_IRQHandler+0x6f0>
     a4c:	4719                	li	a4,6
     a4e:	06e79263          	bne	a5,a4,ab2 <USBHS_IRQHandler+0x702>
     a52:	8a22                	mv	s4,s0
     a54:	04000793          	li	a5,64
     a58:	0087f463          	bgeu	a5,s0,a60 <USBHS_IRQHandler+0x6b0>
     a5c:	04000a13          	li	s4,64
     a60:	010a1993          	slli	s3,s4,0x10
     a64:	0109d993          	srli	s3,s3,0x10
     a68:	83818493          	addi	s1,gp,-1992 # 20000048 <pUSBHS_Descr>
     a6c:	0004a903          	lw	s2,0(s1)
     a70:	864e                	mv	a2,s3
     a72:	85ca                	mv	a1,s2
     a74:	86c18513          	addi	a0,gp,-1940 # 2000007c <USBHS_EP0_Buf>
     a78:	35e040ef          	jal	ra,4dd6 <memcpy>
     a7c:	41340433          	sub	s0,s0,s3
     a80:	82819b23          	sh	s0,-1994(gp) # 20000046 <USBHS_Setup+0x6>
     a84:	994e                	add	s2,s2,s3
     a86:	0124a023          	sw	s2,0(s1)
     a8a:	400237b7          	lui	a5,0x40023
     a8e:	4d479c23          	sh	s4,1240(a5) # 400234d8 <_eusrstack+0x2001b4d8>
     a92:	4da7c703          	lbu	a4,1242(a5)
     a96:	00874713          	xori	a4,a4,8
     a9a:	4ce78d23          	sb	a4,1242(a5)
     a9e:	bfad                	j	a18 <USBHS_IRQHandler+0x668>
     aa0:	8201c703          	lbu	a4,-2016(gp) # 20000030 <_edata>
     aa4:	0ff77713          	andi	a4,a4,255
     aa8:	400237b7          	lui	a5,0x40023
     aac:	40e781a3          	sb	a4,1027(a5) # 40023403 <_eusrstack+0x2001b403>
     ab0:	b7a5                	j	a18 <USBHS_IRQHandler+0x668>
     ab2:	400237b7          	lui	a5,0x40023
     ab6:	4c079c23          	sh	zero,1240(a5) # 400234d8 <_eusrstack+0x2001b4d8>
     aba:	bfb9                	j	a18 <USBHS_IRQHandler+0x668>
     abc:	400237b7          	lui	a5,0x40023
     ac0:	4de7c703          	lbu	a4,1246(a5) # 400234de <_eusrstack+0x2001b4de>
     ac4:	0fc77713          	andi	a4,a4,252
     ac8:	00276713          	ori	a4,a4,2
     acc:	4ce78f23          	sb	a4,1246(a5)
     ad0:	4de7c703          	lbu	a4,1246(a5)
     ad4:	00874713          	xori	a4,a4,8
     ad8:	4ce78f23          	sb	a4,1246(a5)
     adc:	257000ef          	jal	ra,1532 <HID_SetInReport>
     ae0:	bf25                	j	a18 <USBHS_IRQHandler+0x668>
     ae2:	400237b7          	lui	a5,0x40023
     ae6:	4e27c703          	lbu	a4,1250(a5) # 400234e2 <_eusrstack+0x2001b4e2>
     aea:	0fc77713          	andi	a4,a4,252
     aee:	00276713          	ori	a4,a4,2
     af2:	4ee78123          	sb	a4,1250(a5)
     af6:	4e27c703          	lbu	a4,1250(a5)
     afa:	00874713          	xori	a4,a4,8
     afe:	4ee78123          	sb	a4,1250(a5)
     b02:	bf19                	j	a18 <USBHS_IRQHandler+0x668>
     b04:	400237b7          	lui	a5,0x40023
     b08:	4e67c703          	lbu	a4,1254(a5) # 400234e6 <_eusrstack+0x2001b4e6>
     b0c:	0fc77713          	andi	a4,a4,252
     b10:	00276713          	ori	a4,a4,2
     b14:	4ee78323          	sb	a4,1254(a5)
     b18:	4e67c703          	lbu	a4,1254(a5)
     b1c:	00874713          	xori	a4,a4,8
     b20:	4ee78323          	sb	a4,1254(a5)
     b24:	200017b7          	lui	a5,0x20001
     b28:	0bc78713          	addi	a4,a5,188 # 200010bc <Vcom>
     b2c:	6785                	lui	a5,0x1
     b2e:	97ba                	add	a5,a5,a4
     b30:	4705                	li	a4,1
     b32:	a0e79823          	sh	a4,-1520(a5) # a10 <USBHS_IRQHandler+0x660>
     b36:	b5cd                	j	a18 <USBHS_IRQHandler+0x668>
     b38:	40023737          	lui	a4,0x40023
     b3c:	40c75583          	lhu	a1,1036(a4) # 4002340c <_eusrstack+0x2001b40c>
     b40:	05c2                	slli	a1,a1,0x10
     b42:	81c1                	srli	a1,a1,0x10
     b44:	00f7f713          	andi	a4,a5,15
     b48:	4685                	li	a3,1
     b4a:	0cd70963          	beq	a4,a3,c1c <USBHS_IRQHandler+0x86c>
     b4e:	01871693          	slli	a3,a4,0x18
     b52:	86e1                	srai	a3,a3,0x18
     b54:	c2a1                	beqz	a3,b94 <USBHS_IRQHandler+0x7e4>
     b56:	478d                	li	a5,3
     b58:	ecf710e3          	bne	a4,a5,a18 <USBHS_IRQHandler+0x668>
     b5c:	400237b7          	lui	a5,0x40023
     b60:	4e77c703          	lbu	a4,1255(a5) # 400234e7 <_eusrstack+0x2001b4e7>
     b64:	00874713          	xori	a4,a4,8
     b68:	4ee783a3          	sb	a4,1255(a5)
     b6c:	4e77c703          	lbu	a4,1255(a5)
     b70:	0fc77713          	andi	a4,a4,252
     b74:	00276713          	ori	a4,a4,2
     b78:	4ee783a3          	sb	a4,1255(a5)
     b7c:	200017b7          	lui	a5,0x20001
     b80:	0bc78713          	addi	a4,a5,188 # 200010bc <Vcom>
     b84:	6785                	lui	a5,0x1
     b86:	97ba                	add	a5,a5,a4
     b88:	c0b79923          	sh	a1,-1006(a5) # c12 <USBHS_IRQHandler+0x862>
     b8c:	4705                	li	a4,1
     b8e:	c0e79a23          	sh	a4,-1004(a5)
     b92:	b559                	j	a18 <USBHS_IRQHandler+0x668>
     b94:	0407f793          	andi	a5,a5,64
     b98:	e80780e3          	beqz	a5,a18 <USBHS_IRQHandler+0x668>
     b9c:	8301c783          	lbu	a5,-2000(gp) # 20000040 <USBHS_Setup>
     ba0:	0607f793          	andi	a5,a5,96
     ba4:	c7bd                	beqz	a5,c12 <USBHS_IRQHandler+0x862>
     ba6:	83018793          	addi	a5,gp,-2000 # 20000040 <USBHS_Setup>
     baa:	00079323          	sh	zero,6(a5)
     bae:	0017c703          	lbu	a4,1(a5)
     bb2:	02000793          	li	a5,32
     bb6:	00f70a63          	beq	a4,a5,bca <USBHS_IRQHandler+0x81a>
     bba:	400237b7          	lui	a5,0x40023
     bbe:	4c079c23          	sh	zero,1240(a5) # 400234d8 <_eusrstack+0x2001b4d8>
     bc2:	4721                	li	a4,8
     bc4:	4ce78d23          	sb	a4,1242(a5)
     bc8:	bd81                	j	a18 <USBHS_IRQHandler+0x668>
     bca:	86c18793          	addi	a5,gp,-1940 # 2000007c <USBHS_EP0_Buf>
     bce:	0007c303          	lbu	t1,0(a5)
     bd2:	0017c883          	lbu	a7,1(a5)
     bd6:	0027c803          	lbu	a6,2(a5)
     bda:	0037c583          	lbu	a1,3(a5)
     bde:	0047c603          	lbu	a2,4(a5)
     be2:	0057c683          	lbu	a3,5(a5)
     be6:	0067c703          	lbu	a4,6(a5)
     bea:	80618623          	sb	t1,-2036(gp) # 2000001c <LineCfg>
     bee:	80c18793          	addi	a5,gp,-2036 # 2000001c <LineCfg>
     bf2:	011780a3          	sb	a7,1(a5)
     bf6:	01078123          	sb	a6,2(a5)
     bfa:	00b781a3          	sb	a1,3(a5)
     bfe:	00c78223          	sb	a2,4(a5)
     c02:	00d782a3          	sb	a3,5(a5)
     c06:	00e78323          	sb	a4,6(a5)
     c0a:	80c18513          	addi	a0,gp,-2036 # 2000001c <LineCfg>
     c0e:	317000ef          	jal	ra,1724 <VCOM_LineCoding>
     c12:	8361d783          	lhu	a5,-1994(gp) # 20000046 <USBHS_Setup+0x6>
     c16:	e00791e3          	bnez	a5,a18 <USBHS_IRQHandler+0x668>
     c1a:	b745                	j	bba <USBHS_IRQHandler+0x80a>
     c1c:	40023437          	lui	s0,0x40023
     c20:	4df44783          	lbu	a5,1247(s0) # 400234df <_eusrstack+0x2001b4df>
     c24:	0087c793          	xori	a5,a5,8
     c28:	4cf40fa3          	sb	a5,1247(s0)
     c2c:	4df44783          	lbu	a5,1247(s0)
     c30:	0fc7f793          	andi	a5,a5,252
     c34:	0027e793          	ori	a5,a5,2
     c38:	4cf40fa3          	sb	a5,1247(s0)
     c3c:	8ac18513          	addi	a0,gp,-1876 # 200000bc <USBHS_EP1_Rx_Buf>
     c40:	083000ef          	jal	ra,14c2 <HID_GetOutReport>
     c44:	4df44783          	lbu	a5,1247(s0)
     c48:	0fc7f793          	andi	a5,a5,252
     c4c:	4cf40fa3          	sb	a5,1247(s0)
     c50:	b3e1                	j	a18 <USBHS_IRQHandler+0x668>
     c52:	00177793          	andi	a5,a4,1
     c56:	eb81                	bnez	a5,c66 <USBHS_IRQHandler+0x8b6>
     c58:	400237b7          	lui	a5,0x40023
     c5c:	40e78523          	sb	a4,1034(a5) # 4002340a <_eusrstack+0x2001b40a>
     c60:	40078793          	addi	a5,a5,1024
     c64:	b3b5                	j	9d0 <USBHS_IRQHandler+0x620>
     c66:	82018023          	sb	zero,-2016(gp) # 20000030 <_edata>
     c6a:	820180a3          	sb	zero,-2015(gp) # 20000031 <USBHS_DevConfig>
     c6e:	82018123          	sb	zero,-2014(gp) # 20000032 <USBHS_DevEnumStatus>
     c72:	40023437          	lui	s0,0x40023
     c76:	400401a3          	sb	zero,1027(s0) # 40023403 <_eusrstack+0x2001b403>
     c7a:	e16ff0ef          	jal	ra,290 <USBHS_Device_Endp_Init>
     c7e:	4785                	li	a5,1
     c80:	40f40523          	sb	a5,1034(s0)
     c84:	b3b1                	j	9d0 <USBHS_IRQHandler+0x620>

00000c86 <NMI_Handler>:
     c86:	a001                	j	c86 <NMI_Handler>

00000c88 <HardFault_Handler>:
     c88:	a001                	j	c88 <HardFault_Handler>

00000c8a <Ecall_M_Mode_Handler>:
     c8a:	a001                	j	c8a <Ecall_M_Mode_Handler>

00000c8c <Ecall_U_Mode_Handler>:
     c8c:	a001                	j	c8c <Ecall_U_Mode_Handler>

00000c8e <Break_Point_Handler>:
     c8e:	a001                	j	c8e <Break_Point_Handler>
     c90:	a001                	j	c90 <Break_Point_Handler+0x2>

00000c92 <SW_Handler>:
     c92:	a001                	j	c92 <SW_Handler>

00000c94 <WWDG_IRQHandler>:
     c94:	a001                	j	c94 <WWDG_IRQHandler>

00000c96 <PVD_IRQHandler>:
     c96:	a001                	j	c96 <PVD_IRQHandler>

00000c98 <TAMPER_IRQHandler>:
     c98:	a001                	j	c98 <TAMPER_IRQHandler>

00000c9a <RTC_IRQHandler>:
     c9a:	a001                	j	c9a <RTC_IRQHandler>

00000c9c <FLASH_IRQHandler>:
     c9c:	a001                	j	c9c <FLASH_IRQHandler>

00000c9e <RCC_IRQHandler>:
     c9e:	a001                	j	c9e <RCC_IRQHandler>

00000ca0 <EXTI0_IRQHandler>:
     ca0:	a001                	j	ca0 <EXTI0_IRQHandler>

00000ca2 <EXTI1_IRQHandler>:
     ca2:	a001                	j	ca2 <EXTI1_IRQHandler>

00000ca4 <EXTI2_IRQHandler>:
     ca4:	a001                	j	ca4 <EXTI2_IRQHandler>

00000ca6 <EXTI3_IRQHandler>:
     ca6:	a001                	j	ca6 <EXTI3_IRQHandler>

00000ca8 <EXTI4_IRQHandler>:
     ca8:	a001                	j	ca8 <EXTI4_IRQHandler>

00000caa <DMA1_Channel1_IRQHandler>:
     caa:	a001                	j	caa <DMA1_Channel1_IRQHandler>

00000cac <DMA1_Channel2_IRQHandler>:
     cac:	a001                	j	cac <DMA1_Channel2_IRQHandler>

00000cae <DMA1_Channel3_IRQHandler>:
     cae:	a001                	j	cae <DMA1_Channel3_IRQHandler>

00000cb0 <DMA1_Channel4_IRQHandler>:
     cb0:	a001                	j	cb0 <DMA1_Channel4_IRQHandler>

00000cb2 <DMA1_Channel5_IRQHandler>:
     cb2:	a001                	j	cb2 <DMA1_Channel5_IRQHandler>

00000cb4 <DMA1_Channel6_IRQHandler>:
     cb4:	a001                	j	cb4 <DMA1_Channel6_IRQHandler>

00000cb6 <DMA1_Channel7_IRQHandler>:
     cb6:	a001                	j	cb6 <DMA1_Channel7_IRQHandler>

00000cb8 <ADC1_2_IRQHandler>:
     cb8:	a001                	j	cb8 <ADC1_2_IRQHandler>

00000cba <USB_HP_CAN1_TX_IRQHandler>:
     cba:	a001                	j	cba <USB_HP_CAN1_TX_IRQHandler>

00000cbc <USB_LP_CAN1_RX0_IRQHandler>:
     cbc:	a001                	j	cbc <USB_LP_CAN1_RX0_IRQHandler>

00000cbe <CAN1_RX1_IRQHandler>:
     cbe:	a001                	j	cbe <CAN1_RX1_IRQHandler>

00000cc0 <CAN1_SCE_IRQHandler>:
     cc0:	a001                	j	cc0 <CAN1_SCE_IRQHandler>

00000cc2 <EXTI9_5_IRQHandler>:
     cc2:	a001                	j	cc2 <EXTI9_5_IRQHandler>

00000cc4 <TIM1_BRK_IRQHandler>:
     cc4:	a001                	j	cc4 <TIM1_BRK_IRQHandler>

00000cc6 <TIM1_UP_IRQHandler>:
     cc6:	a001                	j	cc6 <TIM1_UP_IRQHandler>

00000cc8 <TIM1_TRG_COM_IRQHandler>:
     cc8:	a001                	j	cc8 <TIM1_TRG_COM_IRQHandler>

00000cca <TIM1_CC_IRQHandler>:
     cca:	a001                	j	cca <TIM1_CC_IRQHandler>

00000ccc <TIM2_IRQHandler>:
     ccc:	a001                	j	ccc <TIM2_IRQHandler>

00000cce <TIM3_IRQHandler>:
     cce:	a001                	j	cce <TIM3_IRQHandler>

00000cd0 <TIM4_IRQHandler>:
     cd0:	a001                	j	cd0 <TIM4_IRQHandler>

00000cd2 <I2C1_EV_IRQHandler>:
     cd2:	a001                	j	cd2 <I2C1_EV_IRQHandler>

00000cd4 <I2C1_ER_IRQHandler>:
     cd4:	a001                	j	cd4 <I2C1_ER_IRQHandler>

00000cd6 <I2C2_EV_IRQHandler>:
     cd6:	a001                	j	cd6 <I2C2_EV_IRQHandler>

00000cd8 <I2C2_ER_IRQHandler>:
     cd8:	a001                	j	cd8 <I2C2_ER_IRQHandler>

00000cda <SPI1_IRQHandler>:
     cda:	a001                	j	cda <SPI1_IRQHandler>

00000cdc <SPI2_IRQHandler>:
     cdc:	a001                	j	cdc <SPI2_IRQHandler>

00000cde <USART1_IRQHandler>:
     cde:	a001                	j	cde <USART1_IRQHandler>

00000ce0 <USART2_IRQHandler>:
     ce0:	a001                	j	ce0 <USART2_IRQHandler>

00000ce2 <USART3_IRQHandler>:
     ce2:	a001                	j	ce2 <USART3_IRQHandler>

00000ce4 <EXTI15_10_IRQHandler>:
     ce4:	a001                	j	ce4 <EXTI15_10_IRQHandler>

00000ce6 <RTCAlarm_IRQHandler>:
     ce6:	a001                	j	ce6 <RTCAlarm_IRQHandler>

00000ce8 <USBWakeUp_IRQHandler>:
     ce8:	a001                	j	ce8 <USBWakeUp_IRQHandler>

00000cea <TIM8_BRK_IRQHandler>:
     cea:	a001                	j	cea <TIM8_BRK_IRQHandler>

00000cec <TIM8_UP_IRQHandler>:
     cec:	a001                	j	cec <TIM8_UP_IRQHandler>

00000cee <TIM8_TRG_COM_IRQHandler>:
     cee:	a001                	j	cee <TIM8_TRG_COM_IRQHandler>

00000cf0 <TIM8_CC_IRQHandler>:
     cf0:	a001                	j	cf0 <TIM8_CC_IRQHandler>

00000cf2 <RNG_IRQHandler>:
     cf2:	a001                	j	cf2 <RNG_IRQHandler>

00000cf4 <FSMC_IRQHandler>:
     cf4:	a001                	j	cf4 <FSMC_IRQHandler>

00000cf6 <SDIO_IRQHandler>:
     cf6:	a001                	j	cf6 <SDIO_IRQHandler>

00000cf8 <TIM5_IRQHandler>:
     cf8:	a001                	j	cf8 <TIM5_IRQHandler>

00000cfa <SPI3_IRQHandler>:
     cfa:	a001                	j	cfa <SPI3_IRQHandler>

00000cfc <UART4_IRQHandler>:
     cfc:	a001                	j	cfc <UART4_IRQHandler>

00000cfe <UART5_IRQHandler>:
     cfe:	a001                	j	cfe <UART5_IRQHandler>

00000d00 <TIM6_IRQHandler>:
     d00:	a001                	j	d00 <TIM6_IRQHandler>

00000d02 <TIM7_IRQHandler>:
     d02:	a001                	j	d02 <TIM7_IRQHandler>

00000d04 <DMA2_Channel1_IRQHandler>:
     d04:	a001                	j	d04 <DMA2_Channel1_IRQHandler>

00000d06 <DMA2_Channel2_IRQHandler>:
     d06:	a001                	j	d06 <DMA2_Channel2_IRQHandler>

00000d08 <DMA2_Channel3_IRQHandler>:
     d08:	a001                	j	d08 <DMA2_Channel3_IRQHandler>

00000d0a <DMA2_Channel4_IRQHandler>:
     d0a:	a001                	j	d0a <DMA2_Channel4_IRQHandler>

00000d0c <DMA2_Channel5_IRQHandler>:
     d0c:	a001                	j	d0c <DMA2_Channel5_IRQHandler>

00000d0e <ETH_IRQHandler>:
     d0e:	a001                	j	d0e <ETH_IRQHandler>

00000d10 <ETH_WKUP_IRQHandler>:
     d10:	a001                	j	d10 <ETH_WKUP_IRQHandler>

00000d12 <CAN2_TX_IRQHandler>:
     d12:	a001                	j	d12 <CAN2_TX_IRQHandler>

00000d14 <CAN2_RX0_IRQHandler>:
     d14:	a001                	j	d14 <CAN2_RX0_IRQHandler>

00000d16 <CAN2_RX1_IRQHandler>:
     d16:	a001                	j	d16 <CAN2_RX1_IRQHandler>

00000d18 <CAN2_SCE_IRQHandler>:
     d18:	a001                	j	d18 <CAN2_SCE_IRQHandler>

00000d1a <OTG_FS_IRQHandler>:
     d1a:	a001                	j	d1a <OTG_FS_IRQHandler>

00000d1c <USBHSWakeup_IRQHandler>:
     d1c:	a001                	j	d1c <USBHSWakeup_IRQHandler>
     d1e:	a001                	j	d1e <USBHSWakeup_IRQHandler+0x2>

00000d20 <DVP_IRQHandler>:
     d20:	a001                	j	d20 <DVP_IRQHandler>

00000d22 <UART6_IRQHandler>:
     d22:	a001                	j	d22 <UART6_IRQHandler>

00000d24 <UART7_IRQHandler>:
     d24:	a001                	j	d24 <UART7_IRQHandler>

00000d26 <UART8_IRQHandler>:
     d26:	a001                	j	d26 <UART8_IRQHandler>

00000d28 <TIM9_BRK_IRQHandler>:
     d28:	a001                	j	d28 <TIM9_BRK_IRQHandler>

00000d2a <TIM9_UP_IRQHandler>:
     d2a:	a001                	j	d2a <TIM9_UP_IRQHandler>

00000d2c <TIM9_TRG_COM_IRQHandler>:
     d2c:	a001                	j	d2c <TIM9_TRG_COM_IRQHandler>

00000d2e <TIM9_CC_IRQHandler>:
     d2e:	a001                	j	d2e <TIM9_CC_IRQHandler>

00000d30 <TIM10_BRK_IRQHandler>:
     d30:	a001                	j	d30 <TIM10_BRK_IRQHandler>

00000d32 <TIM10_UP_IRQHandler>:
     d32:	a001                	j	d32 <TIM10_UP_IRQHandler>

00000d34 <TIM10_TRG_COM_IRQHandler>:
     d34:	a001                	j	d34 <TIM10_TRG_COM_IRQHandler>

00000d36 <TIM10_CC_IRQHandler>:
     d36:	a001                	j	d36 <TIM10_CC_IRQHandler>

00000d38 <DMA2_Channel6_IRQHandler>:
     d38:	a001                	j	d38 <DMA2_Channel6_IRQHandler>

00000d3a <DMA2_Channel7_IRQHandler>:
     d3a:	a001                	j	d3a <DMA2_Channel7_IRQHandler>

00000d3c <DMA2_Channel8_IRQHandler>:
     d3c:	a001                	j	d3c <DMA2_Channel8_IRQHandler>

00000d3e <DMA2_Channel9_IRQHandler>:
     d3e:	a001                	j	d3e <DMA2_Channel9_IRQHandler>

00000d40 <DMA2_Channel10_IRQHandler>:
     d40:	a001                	j	d40 <DMA2_Channel10_IRQHandler>

00000d42 <DMA2_Channel11_IRQHandler>:
     d42:	a001                	j	d42 <DMA2_Channel11_IRQHandler>

00000d44 <handle_reset>:
     d44:	20000197          	auipc	gp,0x20000
     d48:	acc18193          	addi	gp,gp,-1332 # 20000810 <__global_pointer$>
     d4c:	20007117          	auipc	sp,0x20007
     d50:	2b410113          	addi	sp,sp,692 # 20008000 <_eusrstack>
     d54:	00004517          	auipc	a0,0x4
     d58:	4bc50513          	addi	a0,a0,1212 # 5210 <_data_lma>
     d5c:	1ffff597          	auipc	a1,0x1ffff
     d60:	2a458593          	addi	a1,a1,676 # 20000000 <_data_vma>
     d64:	82018613          	addi	a2,gp,-2016 # 20000030 <_edata>
     d68:	00c5fa63          	bgeu	a1,a2,d7c <handle_reset+0x38>
     d6c:	00052283          	lw	t0,0(a0)
     d70:	0055a023          	sw	t0,0(a1)
     d74:	0511                	addi	a0,a0,4
     d76:	0591                	addi	a1,a1,4
     d78:	fec5eae3          	bltu	a1,a2,d6c <handle_reset+0x28>
     d7c:	82018513          	addi	a0,gp,-2016 # 20000030 <_edata>
     d80:	20001597          	auipc	a1,0x20001
     d84:	f9858593          	addi	a1,a1,-104 # 20001d18 <_ebss>
     d88:	00b57763          	bgeu	a0,a1,d96 <handle_reset+0x52>
     d8c:	00052023          	sw	zero,0(a0)
     d90:	0511                	addi	a0,a0,4
     d92:	feb56de3          	bltu	a0,a1,d8c <handle_reset+0x48>
     d96:	42fd                	li	t0,31
     d98:	bc029073          	csrw	0xbc0,t0
     d9c:	42ad                	li	t0,11
     d9e:	80429073          	csrw	0x804,t0
     da2:	000062b7          	lui	t0,0x6
     da6:	08828293          	addi	t0,t0,136 # 6088 <_data_lma+0xe78>
     daa:	3002a073          	csrs	mstatus,t0
     dae:	fffff297          	auipc	t0,0xfffff
     db2:	28a28293          	addi	t0,t0,650 # 38 <_einit>
     db6:	0032e293          	ori	t0,t0,3
     dba:	30529073          	csrw	mtvec,t0
     dbe:	014000ef          	jal	ra,dd2 <SystemInit>
     dc2:	00001297          	auipc	t0,0x1
     dc6:	81828293          	addi	t0,t0,-2024 # 15da <main>
     dca:	34129073          	csrw	mepc,t0
     dce:	30200073          	mret

00000dd2 <SystemInit>:
     dd2:	1141                	addi	sp,sp,-16
     dd4:	400217b7          	lui	a5,0x40021
     dd8:	4398                	lw	a4,0(a5)
     dda:	00176713          	ori	a4,a4,1
     dde:	c398                	sw	a4,0(a5)
     de0:	43d8                	lw	a4,4(a5)
     de2:	f8ff06b7          	lui	a3,0xf8ff0
     de6:	8f75                	and	a4,a4,a3
     de8:	c3d8                	sw	a4,4(a5)
     dea:	4398                	lw	a4,0(a5)
     dec:	fef706b7          	lui	a3,0xfef70
     df0:	16fd                	addi	a3,a3,-1
     df2:	8f75                	and	a4,a4,a3
     df4:	c398                	sw	a4,0(a5)
     df6:	4398                	lw	a4,0(a5)
     df8:	fffc06b7          	lui	a3,0xfffc0
     dfc:	16fd                	addi	a3,a3,-1
     dfe:	8f75                	and	a4,a4,a3
     e00:	c398                	sw	a4,0(a5)
     e02:	43d8                	lw	a4,4(a5)
     e04:	ff8106b7          	lui	a3,0xff810
     e08:	16fd                	addi	a3,a3,-1
     e0a:	8f75                	and	a4,a4,a3
     e0c:	c3d8                	sw	a4,4(a5)
     e0e:	4398                	lw	a4,0(a5)
     e10:	ec0006b7          	lui	a3,0xec000
     e14:	16fd                	addi	a3,a3,-1
     e16:	8f75                	and	a4,a4,a3
     e18:	c398                	sw	a4,0(a5)
     e1a:	00ff0737          	lui	a4,0xff0
     e1e:	c798                	sw	a4,8(a5)
     e20:	0207a623          	sw	zero,44(a5) # 4002102c <_eusrstack+0x2001902c>
     e24:	c402                	sw	zero,8(sp)
     e26:	c602                	sw	zero,12(sp)
     e28:	4398                	lw	a4,0(a5)
     e2a:	66c1                	lui	a3,0x10
     e2c:	8f55                	or	a4,a4,a3
     e2e:	c398                	sw	a4,0(a5)
     e30:	40021637          	lui	a2,0x40021
     e34:	000206b7          	lui	a3,0x20
     e38:	6705                	lui	a4,0x1
     e3a:	421c                	lw	a5,0(a2)
     e3c:	8ff5                	and	a5,a5,a3
     e3e:	c63e                	sw	a5,12(sp)
     e40:	47a2                	lw	a5,8(sp)
     e42:	0785                	addi	a5,a5,1
     e44:	c43e                	sw	a5,8(sp)
     e46:	47b2                	lw	a5,12(sp)
     e48:	e781                	bnez	a5,e50 <SystemInit+0x7e>
     e4a:	47a2                	lw	a5,8(sp)
     e4c:	fee797e3          	bne	a5,a4,e3a <SystemInit+0x68>
     e50:	400217b7          	lui	a5,0x40021
     e54:	439c                	lw	a5,0(a5)
     e56:	00e79713          	slli	a4,a5,0xe
     e5a:	00075a63          	bgez	a4,e6e <SystemInit+0x9c>
     e5e:	4785                	li	a5,1
     e60:	c63e                	sw	a5,12(sp)
     e62:	4732                	lw	a4,12(sp)
     e64:	4785                	li	a5,1
     e66:	00f70663          	beq	a4,a5,e72 <SystemInit+0xa0>
     e6a:	0141                	addi	sp,sp,16
     e6c:	8082                	ret
     e6e:	c602                	sw	zero,12(sp)
     e70:	bfcd                	j	e62 <SystemInit+0x90>
     e72:	400217b7          	lui	a5,0x40021
     e76:	43d8                	lw	a4,4(a5)
     e78:	c3d8                	sw	a4,4(a5)
     e7a:	43d8                	lw	a4,4(a5)
     e7c:	c3d8                	sw	a4,4(a5)
     e7e:	43d8                	lw	a4,4(a5)
     e80:	40076713          	ori	a4,a4,1024
     e84:	c3d8                	sw	a4,4(a5)
     e86:	43d8                	lw	a4,4(a5)
     e88:	ffc106b7          	lui	a3,0xffc10
     e8c:	16fd                	addi	a3,a3,-1
     e8e:	8f75                	and	a4,a4,a3
     e90:	c3d8                	sw	a4,4(a5)
     e92:	43d8                	lw	a4,4(a5)
     e94:	66c1                	lui	a3,0x10
     e96:	8f55                	or	a4,a4,a3
     e98:	c3d8                	sw	a4,4(a5)
     e9a:	4398                	lw	a4,0(a5)
     e9c:	010006b7          	lui	a3,0x1000
     ea0:	8f55                	or	a4,a4,a3
     ea2:	c398                	sw	a4,0(a5)
     ea4:	40021737          	lui	a4,0x40021
     ea8:	431c                	lw	a5,0(a4)
     eaa:	00679693          	slli	a3,a5,0x6
     eae:	fe06dde3          	bgez	a3,ea8 <SystemInit+0xd6>
     eb2:	400217b7          	lui	a5,0x40021
     eb6:	43d8                	lw	a4,4(a5)
     eb8:	9b71                	andi	a4,a4,-4
     eba:	c3d8                	sw	a4,4(a5)
     ebc:	43d8                	lw	a4,4(a5)
     ebe:	00276713          	ori	a4,a4,2
     ec2:	c3d8                	sw	a4,4(a5)
     ec4:	400216b7          	lui	a3,0x40021
     ec8:	4721                	li	a4,8
     eca:	42dc                	lw	a5,4(a3)
     ecc:	8bb1                	andi	a5,a5,12
     ece:	fee79ee3          	bne	a5,a4,eca <SystemInit+0xf8>
     ed2:	bf61                	j	e6a <SystemInit+0x98>

00000ed4 <DMA_Init>:
     ed4:	411c                	lw	a5,0(a0)
     ed6:	7761                	lui	a4,0xffff8
     ed8:	073d                	addi	a4,a4,15
     eda:	8f7d                	and	a4,a4,a5
     edc:	459c                	lw	a5,8(a1)
     ede:	5194                	lw	a3,32(a1)
     ee0:	8fd5                	or	a5,a5,a3
     ee2:	4994                	lw	a3,16(a1)
     ee4:	8fd5                	or	a5,a5,a3
     ee6:	49d4                	lw	a3,20(a1)
     ee8:	8fd5                	or	a5,a5,a3
     eea:	4d94                	lw	a3,24(a1)
     eec:	8fd5                	or	a5,a5,a3
     eee:	4dd4                	lw	a3,28(a1)
     ef0:	8fd5                	or	a5,a5,a3
     ef2:	51d4                	lw	a3,36(a1)
     ef4:	8fd5                	or	a5,a5,a3
     ef6:	5594                	lw	a3,40(a1)
     ef8:	8fd5                	or	a5,a5,a3
     efa:	8fd9                	or	a5,a5,a4
     efc:	c11c                	sw	a5,0(a0)
     efe:	45dc                	lw	a5,12(a1)
     f00:	c15c                	sw	a5,4(a0)
     f02:	419c                	lw	a5,0(a1)
     f04:	c51c                	sw	a5,8(a0)
     f06:	41dc                	lw	a5,4(a1)
     f08:	c55c                	sw	a5,12(a0)
     f0a:	8082                	ret

00000f0c <DMA_Cmd>:
     f0c:	c591                	beqz	a1,f18 <DMA_Cmd+0xc>
     f0e:	411c                	lw	a5,0(a0)
     f10:	0017e793          	ori	a5,a5,1
     f14:	c11c                	sw	a5,0(a0)
     f16:	8082                	ret
     f18:	411c                	lw	a5,0(a0)
     f1a:	6741                	lui	a4,0x10
     f1c:	1779                	addi	a4,a4,-2
     f1e:	8ff9                	and	a5,a5,a4
     f20:	c11c                	sw	a5,0(a0)
     f22:	8082                	ret

00000f24 <DMA_SetCurrDataCounter>:
     f24:	c14c                	sw	a1,4(a0)
     f26:	8082                	ret

00000f28 <DMA_GetCurrDataCounter>:
     f28:	4148                	lw	a0,4(a0)
     f2a:	0542                	slli	a0,a0,0x10
     f2c:	8141                	srli	a0,a0,0x10
     f2e:	8082                	ret

00000f30 <GPIO_Init>:
     f30:	459c                	lw	a5,8(a1)
     f32:	00f7f893          	andi	a7,a5,15
     f36:	8bc1                	andi	a5,a5,16
     f38:	c781                	beqz	a5,f40 <GPIO_Init+0x10>
     f3a:	41dc                	lw	a5,4(a1)
     f3c:	00f8e8b3          	or	a7,a7,a5
     f40:	0005c783          	lbu	a5,0(a1)
     f44:	cba9                	beqz	a5,f96 <GPIO_Init+0x66>
     f46:	4110                	lw	a2,0(a0)
     f48:	4781                	li	a5,0
     f4a:	4e05                	li	t3,1
     f4c:	4f3d                	li	t5,15
     f4e:	02800e93          	li	t4,40
     f52:	04800f93          	li	t6,72
     f56:	4321                	li	t1,8
     f58:	a029                	j	f62 <GPIO_Init+0x32>
     f5a:	c954                	sw	a3,20(a0)
     f5c:	0785                	addi	a5,a5,1
     f5e:	02678b63          	beq	a5,t1,f94 <GPIO_Init+0x64>
     f62:	00fe16b3          	sll	a3,t3,a5
     f66:	0005d703          	lhu	a4,0(a1)
     f6a:	8f75                	and	a4,a4,a3
     f6c:	fee698e3          	bne	a3,a4,f5c <GPIO_Init+0x2c>
     f70:	00279713          	slli	a4,a5,0x2
     f74:	00ef1833          	sll	a6,t5,a4
     f78:	fff84813          	not	a6,a6
     f7c:	00c87633          	and	a2,a6,a2
     f80:	00e89733          	sll	a4,a7,a4
     f84:	8e59                	or	a2,a2,a4
     f86:	4598                	lw	a4,8(a1)
     f88:	fdd709e3          	beq	a4,t4,f5a <GPIO_Init+0x2a>
     f8c:	fdf718e3          	bne	a4,t6,f5c <GPIO_Init+0x2c>
     f90:	c914                	sw	a3,16(a0)
     f92:	b7e9                	j	f5c <GPIO_Init+0x2c>
     f94:	c110                	sw	a2,0(a0)
     f96:	0005d703          	lhu	a4,0(a1)
     f9a:	0ff00793          	li	a5,255
     f9e:	04e7fd63          	bgeu	a5,a4,ff8 <GPIO_Init+0xc8>
     fa2:	4150                	lw	a2,4(a0)
     fa4:	47a1                	li	a5,8
     fa6:	4e05                	li	t3,1
     fa8:	4fbd                	li	t6,15
     faa:	02800f13          	li	t5,40
     fae:	04800e93          	li	t4,72
     fb2:	4341                	li	t1,16
     fb4:	a031                	j	fc0 <GPIO_Init+0x90>
     fb6:	c954                	sw	a3,20(a0)
     fb8:	a815                	j	fec <GPIO_Init+0xbc>
     fba:	0785                	addi	a5,a5,1
     fbc:	02678d63          	beq	a5,t1,ff6 <GPIO_Init+0xc6>
     fc0:	00fe16b3          	sll	a3,t3,a5
     fc4:	0005d703          	lhu	a4,0(a1)
     fc8:	8f75                	and	a4,a4,a3
     fca:	fee698e3          	bne	a3,a4,fba <GPIO_Init+0x8a>
     fce:	00279713          	slli	a4,a5,0x2
     fd2:	1701                	addi	a4,a4,-32
     fd4:	00ef9833          	sll	a6,t6,a4
     fd8:	fff84813          	not	a6,a6
     fdc:	00c87633          	and	a2,a6,a2
     fe0:	00e89733          	sll	a4,a7,a4
     fe4:	8e59                	or	a2,a2,a4
     fe6:	4598                	lw	a4,8(a1)
     fe8:	fde707e3          	beq	a4,t5,fb6 <GPIO_Init+0x86>
     fec:	4598                	lw	a4,8(a1)
     fee:	fdd716e3          	bne	a4,t4,fba <GPIO_Init+0x8a>
     ff2:	c914                	sw	a3,16(a0)
     ff4:	b7d9                	j	fba <GPIO_Init+0x8a>
     ff6:	c150                	sw	a2,4(a0)
     ff8:	8082                	ret

00000ffa <GPIO_SetBits>:
     ffa:	c90c                	sw	a1,16(a0)
     ffc:	8082                	ret

00000ffe <RCC_GetClocksFreq>:
     ffe:	400217b7          	lui	a5,0x40021
    1002:	43dc                	lw	a5,4(a5)
    1004:	8bb1                	andi	a5,a5,12
    1006:	4711                	li	a4,4
    1008:	08e78263          	beq	a5,a4,108c <__stack_size+0x8c>
    100c:	4721                	li	a4,8
    100e:	08e78563          	beq	a5,a4,1098 <__stack_size+0x98>
    1012:	c799                	beqz	a5,1020 <__stack_size+0x20>
    1014:	007a17b7          	lui	a5,0x7a1
    1018:	20078793          	addi	a5,a5,512 # 7a1200 <_data_lma+0x79bff0>
    101c:	c11c                	sw	a5,0(a0)
    101e:	a031                	j	102a <__stack_size+0x2a>
    1020:	007a17b7          	lui	a5,0x7a1
    1024:	20078793          	addi	a5,a5,512 # 7a1200 <_data_lma+0x79bff0>
    1028:	c11c                	sw	a5,0(a0)
    102a:	40021637          	lui	a2,0x40021
    102e:	425c                	lw	a5,4(a2)
    1030:	8391                	srli	a5,a5,0x4
    1032:	8bbd                	andi	a5,a5,15
    1034:	20000737          	lui	a4,0x20000
    1038:	00070713          	mv	a4,a4
    103c:	97ba                	add	a5,a5,a4
    103e:	0007c683          	lbu	a3,0(a5)
    1042:	411c                	lw	a5,0(a0)
    1044:	00d7d7b3          	srl	a5,a5,a3
    1048:	c15c                	sw	a5,4(a0)
    104a:	4254                	lw	a3,4(a2)
    104c:	82a1                	srli	a3,a3,0x8
    104e:	8a9d                	andi	a3,a3,7
    1050:	96ba                	add	a3,a3,a4
    1052:	0006c683          	lbu	a3,0(a3) # 40021000 <_eusrstack+0x20019000>
    1056:	00d7d6b3          	srl	a3,a5,a3
    105a:	c514                	sw	a3,8(a0)
    105c:	4254                	lw	a3,4(a2)
    105e:	82ad                	srli	a3,a3,0xb
    1060:	8a9d                	andi	a3,a3,7
    1062:	9736                	add	a4,a4,a3
    1064:	00074703          	lbu	a4,0(a4) # 20000000 <_data_vma>
    1068:	00e7d7b3          	srl	a5,a5,a4
    106c:	c55c                	sw	a5,12(a0)
    106e:	4258                	lw	a4,4(a2)
    1070:	8339                	srli	a4,a4,0xe
    1072:	00377693          	andi	a3,a4,3
    1076:	80418713          	addi	a4,gp,-2044 # 20000014 <ADCPrescTable>
    107a:	9736                	add	a4,a4,a3
    107c:	00074703          	lbu	a4,0(a4)
    1080:	0ff77713          	andi	a4,a4,255
    1084:	02e7d7b3          	divu	a5,a5,a4
    1088:	c91c                	sw	a5,16(a0)
    108a:	8082                	ret
    108c:	007a17b7          	lui	a5,0x7a1
    1090:	20078793          	addi	a5,a5,512 # 7a1200 <_data_lma+0x79bff0>
    1094:	c11c                	sw	a5,0(a0)
    1096:	bf51                	j	102a <__stack_size+0x2a>
    1098:	40021737          	lui	a4,0x40021
    109c:	435c                	lw	a5,4(a4)
    109e:	4358                	lw	a4,4(a4)
    10a0:	66c1                	lui	a3,0x10
    10a2:	8f75                	and	a4,a4,a3
    10a4:	83c9                	srli	a5,a5,0x12
    10a6:	8bbd                	andi	a5,a5,15
    10a8:	0789                	addi	a5,a5,2
    10aa:	1ffff6b7          	lui	a3,0x1ffff
    10ae:	70c6a683          	lw	a3,1804(a3) # 1ffff70c <_data_lma+0x1fffa4fc>
    10b2:	01169613          	slli	a2,a3,0x11
    10b6:	02064763          	bltz	a2,10e4 <__stack_size+0xe4>
    10ba:	4645                	li	a2,17
    10bc:	4681                	li	a3,0
    10be:	02c78163          	beq	a5,a2,10e0 <__stack_size+0xe0>
    10c2:	e33d                	bnez	a4,1128 <__stack_size+0x128>
    10c4:	40024737          	lui	a4,0x40024
    10c8:	80072703          	lw	a4,-2048(a4) # 40023800 <_eusrstack+0x2001b800>
    10cc:	8b41                	andi	a4,a4,16
    10ce:	c729                	beqz	a4,1118 <__stack_size+0x118>
    10d0:	007a1737          	lui	a4,0x7a1
    10d4:	20070713          	addi	a4,a4,512 # 7a1200 <_data_lma+0x79bff0>
    10d8:	02e787b3          	mul	a5,a5,a4
    10dc:	c11c                	sw	a5,0(a0)
    10de:	a879                	j	117c <__stack_size+0x17c>
    10e0:	47c9                	li	a5,18
    10e2:	b7c5                	j	10c2 <__stack_size+0xc2>
    10e4:	4689                	li	a3,2
    10e6:	02d78163          	beq	a5,a3,1108 <__stack_size+0x108>
    10ea:	46bd                	li	a3,15
    10ec:	02d78163          	beq	a5,a3,110e <__stack_size+0x10e>
    10f0:	46c1                	li	a3,16
    10f2:	00d79563          	bne	a5,a3,10fc <__stack_size+0xfc>
    10f6:	4681                	li	a3,0
    10f8:	47bd                	li	a5,15
    10fa:	b7e1                	j	10c2 <__stack_size+0xc2>
    10fc:	46c5                	li	a3,17
    10fe:	00d79b63          	bne	a5,a3,1114 <__stack_size+0x114>
    1102:	4681                	li	a3,0
    1104:	47c1                	li	a5,16
    1106:	bf75                	j	10c2 <__stack_size+0xc2>
    1108:	4681                	li	a3,0
    110a:	47c9                	li	a5,18
    110c:	bf5d                	j	10c2 <__stack_size+0xc2>
    110e:	4685                	li	a3,1
    1110:	47b5                	li	a5,13
    1112:	bf45                	j	10c2 <__stack_size+0xc2>
    1114:	4681                	li	a3,0
    1116:	b775                	j	10c2 <__stack_size+0xc2>
    1118:	003d1737          	lui	a4,0x3d1
    111c:	90070713          	addi	a4,a4,-1792 # 3d0900 <_data_lma+0x3cb6f0>
    1120:	02e787b3          	mul	a5,a5,a4
    1124:	c11c                	sw	a5,0(a0)
    1126:	a899                	j	117c <__stack_size+0x17c>
    1128:	40021737          	lui	a4,0x40021
    112c:	5758                	lw	a4,44(a4)
    112e:	00f71613          	slli	a2,a4,0xf
    1132:	08065463          	bgez	a2,11ba <__stack_size+0x1ba>
    1136:	400215b7          	lui	a1,0x40021
    113a:	55d8                	lw	a4,44(a1)
    113c:	8311                	srli	a4,a4,0x4
    113e:	8b3d                	andi	a4,a4,15
    1140:	0705                	addi	a4,a4,1
    1142:	007a1637          	lui	a2,0x7a1
    1146:	20060613          	addi	a2,a2,512 # 7a1200 <_data_lma+0x79bff0>
    114a:	02e65733          	divu	a4,a2,a4
    114e:	c118                	sw	a4,0(a0)
    1150:	55d0                	lw	a2,44(a1)
    1152:	8221                	srli	a2,a2,0x8
    1154:	8a3d                	andi	a2,a2,15
    1156:	ea0d                	bnez	a2,1188 <__stack_size+0x188>
    1158:	00271613          	slli	a2,a4,0x2
    115c:	9732                	add	a4,a4,a2
    115e:	8305                	srli	a4,a4,0x1
    1160:	c118                	sw	a4,0(a0)
    1162:	40021737          	lui	a4,0x40021
    1166:	5758                	lw	a4,44(a4)
    1168:	8b3d                	andi	a4,a4,15
    116a:	0705                	addi	a4,a4,1
    116c:	4110                	lw	a2,0(a0)
    116e:	02e65733          	divu	a4,a2,a4
    1172:	c118                	sw	a4,0(a0)
    1174:	4118                	lw	a4,0(a0)
    1176:	02f707b3          	mul	a5,a4,a5
    117a:	c11c                	sw	a5,0(a0)
    117c:	ea0687e3          	beqz	a3,102a <__stack_size+0x2a>
    1180:	411c                	lw	a5,0(a0)
    1182:	8385                	srli	a5,a5,0x1
    1184:	c11c                	sw	a5,0(a0)
    1186:	b555                	j	102a <__stack_size+0x2a>
    1188:	4585                	li	a1,1
    118a:	00b60a63          	beq	a2,a1,119e <__stack_size+0x19e>
    118e:	45bd                	li	a1,15
    1190:	00b60f63          	beq	a2,a1,11ae <__stack_size+0x1ae>
    1194:	0609                	addi	a2,a2,2
    1196:	02e60733          	mul	a4,a2,a4
    119a:	c118                	sw	a4,0(a0)
    119c:	b7d9                	j	1162 <__stack_size+0x162>
    119e:	00171613          	slli	a2,a4,0x1
    11a2:	963a                	add	a2,a2,a4
    11a4:	060e                	slli	a2,a2,0x3
    11a6:	9732                	add	a4,a4,a2
    11a8:	8305                	srli	a4,a4,0x1
    11aa:	c118                	sw	a4,0(a0)
    11ac:	bf5d                	j	1162 <__stack_size+0x162>
    11ae:	00271613          	slli	a2,a4,0x2
    11b2:	9732                	add	a4,a4,a2
    11b4:	070a                	slli	a4,a4,0x2
    11b6:	c118                	sw	a4,0(a0)
    11b8:	b76d                	j	1162 <__stack_size+0x162>
    11ba:	40021737          	lui	a4,0x40021
    11be:	5758                	lw	a4,44(a4)
    11c0:	8b3d                	andi	a4,a4,15
    11c2:	00170613          	addi	a2,a4,1 # 40021001 <_eusrstack+0x20019001>
    11c6:	007a1737          	lui	a4,0x7a1
    11ca:	20070713          	addi	a4,a4,512 # 7a1200 <_data_lma+0x79bff0>
    11ce:	02c75733          	divu	a4,a4,a2
    11d2:	c118                	sw	a4,0(a0)
    11d4:	b745                	j	1174 <__stack_size+0x174>

000011d6 <RCC_AHBPeriphClockCmd>:
    11d6:	c599                	beqz	a1,11e4 <RCC_AHBPeriphClockCmd+0xe>
    11d8:	40021737          	lui	a4,0x40021
    11dc:	4b5c                	lw	a5,20(a4)
    11de:	8d5d                	or	a0,a0,a5
    11e0:	cb48                	sw	a0,20(a4)
    11e2:	8082                	ret
    11e4:	400217b7          	lui	a5,0x40021
    11e8:	4bd8                	lw	a4,20(a5)
    11ea:	fff54513          	not	a0,a0
    11ee:	8d79                	and	a0,a0,a4
    11f0:	cbc8                	sw	a0,20(a5)
    11f2:	8082                	ret

000011f4 <RCC_APB2PeriphClockCmd>:
    11f4:	c599                	beqz	a1,1202 <RCC_APB2PeriphClockCmd+0xe>
    11f6:	40021737          	lui	a4,0x40021
    11fa:	4f1c                	lw	a5,24(a4)
    11fc:	8d5d                	or	a0,a0,a5
    11fe:	cf08                	sw	a0,24(a4)
    1200:	8082                	ret
    1202:	400217b7          	lui	a5,0x40021
    1206:	4f98                	lw	a4,24(a5)
    1208:	fff54513          	not	a0,a0
    120c:	8d79                	and	a0,a0,a4
    120e:	cf88                	sw	a0,24(a5)
    1210:	8082                	ret

00001212 <RCC_APB1PeriphClockCmd>:
    1212:	c599                	beqz	a1,1220 <RCC_APB1PeriphClockCmd+0xe>
    1214:	40021737          	lui	a4,0x40021
    1218:	4f5c                	lw	a5,28(a4)
    121a:	8d5d                	or	a0,a0,a5
    121c:	cf48                	sw	a0,28(a4)
    121e:	8082                	ret
    1220:	400217b7          	lui	a5,0x40021
    1224:	4fd8                	lw	a4,28(a5)
    1226:	fff54513          	not	a0,a0
    122a:	8d79                	and	a0,a0,a4
    122c:	cfc8                	sw	a0,28(a5)
    122e:	8082                	ret

00001230 <RCC_USBHSConfig>:
    1230:	400217b7          	lui	a5,0x40021
    1234:	57d8                	lw	a4,44(a5)
    1236:	f90006b7          	lui	a3,0xf9000
    123a:	16fd                	addi	a3,a3,-1
    123c:	8f75                	and	a4,a4,a3
    123e:	d7d8                	sw	a4,44(a5)
    1240:	57d8                	lw	a4,44(a5)
    1242:	0562                	slli	a0,a0,0x18
    1244:	8d59                	or	a0,a0,a4
    1246:	d7c8                	sw	a0,44(a5)
    1248:	8082                	ret

0000124a <RCC_USBHSPLLCLKConfig>:
    124a:	400217b7          	lui	a5,0x40021
    124e:	57d8                	lw	a4,44(a5)
    1250:	f80006b7          	lui	a3,0xf8000
    1254:	16fd                	addi	a3,a3,-1
    1256:	8f75                	and	a4,a4,a3
    1258:	d7d8                	sw	a4,44(a5)
    125a:	57d8                	lw	a4,44(a5)
    125c:	056e                	slli	a0,a0,0x1b
    125e:	8d59                	or	a0,a0,a4
    1260:	d7c8                	sw	a0,44(a5)
    1262:	8082                	ret

00001264 <RCC_USBHSPLLCKREFCLKConfig>:
    1264:	400217b7          	lui	a5,0x40021
    1268:	57d8                	lw	a4,44(a5)
    126a:	d00006b7          	lui	a3,0xd0000
    126e:	16fd                	addi	a3,a3,-1
    1270:	8f75                	and	a4,a4,a3
    1272:	d7d8                	sw	a4,44(a5)
    1274:	57d8                	lw	a4,44(a5)
    1276:	0572                	slli	a0,a0,0x1c
    1278:	8d59                	or	a0,a0,a4
    127a:	d7c8                	sw	a0,44(a5)
    127c:	8082                	ret

0000127e <RCC_USBHSPHYPLLALIVEcmd>:
    127e:	c909                	beqz	a0,1290 <RCC_USBHSPHYPLLALIVEcmd+0x12>
    1280:	40021737          	lui	a4,0x40021
    1284:	575c                	lw	a5,44(a4)
    1286:	400006b7          	lui	a3,0x40000
    128a:	8fd5                	or	a5,a5,a3
    128c:	d75c                	sw	a5,44(a4)
    128e:	8082                	ret
    1290:	400216b7          	lui	a3,0x40021
    1294:	56dc                	lw	a5,44(a3)
    1296:	c0000737          	lui	a4,0xc0000
    129a:	177d                	addi	a4,a4,-1
    129c:	8ff9                	and	a5,a5,a4
    129e:	d6dc                	sw	a5,44(a3)
    12a0:	8082                	ret

000012a2 <RCC_USBCLK48MConfig>:
    12a2:	40021737          	lui	a4,0x40021
    12a6:	575c                	lw	a5,44(a4)
    12a8:	0786                	slli	a5,a5,0x1
    12aa:	8385                	srli	a5,a5,0x1
    12ac:	d75c                	sw	a5,44(a4)
    12ae:	575c                	lw	a5,44(a4)
    12b0:	057e                	slli	a0,a0,0x1f
    12b2:	8d5d                	or	a0,a0,a5
    12b4:	d748                	sw	a0,44(a4)
    12b6:	8082                	ret

000012b8 <USART_Init>:
    12b8:	f79fe2ef          	jal	t0,230 <__riscv_save_0>
    12bc:	1101                	addi	sp,sp,-32
    12be:	842a                	mv	s0,a0
    12c0:	84ae                	mv	s1,a1
    12c2:	01055703          	lhu	a4,16(a0)
    12c6:	77f5                	lui	a5,0xffffd
    12c8:	17fd                	addi	a5,a5,-1
    12ca:	8ff9                	and	a5,a5,a4
    12cc:	0065d703          	lhu	a4,6(a1) # 40021006 <_eusrstack+0x20019006>
    12d0:	8fd9                	or	a5,a5,a4
    12d2:	00f51823          	sh	a5,16(a0)
    12d6:	00c55703          	lhu	a4,12(a0)
    12da:	77fd                	lui	a5,0xfffff
    12dc:	9f378793          	addi	a5,a5,-1549 # ffffe9f3 <_eusrstack+0xdfff69f3>
    12e0:	8ff9                	and	a5,a5,a4
    12e2:	0045d703          	lhu	a4,4(a1)
    12e6:	8fd9                	or	a5,a5,a4
    12e8:	0085d703          	lhu	a4,8(a1)
    12ec:	8fd9                	or	a5,a5,a4
    12ee:	00a5d703          	lhu	a4,10(a1)
    12f2:	8fd9                	or	a5,a5,a4
    12f4:	00f51623          	sh	a5,12(a0)
    12f8:	01455783          	lhu	a5,20(a0)
    12fc:	07c2                	slli	a5,a5,0x10
    12fe:	83c1                	srli	a5,a5,0x10
    1300:	cff7f793          	andi	a5,a5,-769
    1304:	00c5d703          	lhu	a4,12(a1)
    1308:	8fd9                	or	a5,a5,a4
    130a:	00f51a23          	sh	a5,20(a0)
    130e:	0068                	addi	a0,sp,12
    1310:	31fd                	jal	ffe <RCC_GetClocksFreq>
    1312:	400147b7          	lui	a5,0x40014
    1316:	80078793          	addi	a5,a5,-2048 # 40013800 <_eusrstack+0x2000b800>
    131a:	04f40f63          	beq	s0,a5,1378 <USART_Init+0xc0>
    131e:	4752                	lw	a4,20(sp)
    1320:	00c45783          	lhu	a5,12(s0)
    1324:	07c2                	slli	a5,a5,0x10
    1326:	87c1                	srai	a5,a5,0x10
    1328:	0407ca63          	bltz	a5,137c <USART_Init+0xc4>
    132c:	00171793          	slli	a5,a4,0x1
    1330:	97ba                	add	a5,a5,a4
    1332:	078e                	slli	a5,a5,0x3
    1334:	97ba                	add	a5,a5,a4
    1336:	4098                	lw	a4,0(s1)
    1338:	070a                	slli	a4,a4,0x2
    133a:	02e7d7b3          	divu	a5,a5,a4
    133e:	06400713          	li	a4,100
    1342:	02e7d6b3          	divu	a3,a5,a4
    1346:	0692                	slli	a3,a3,0x4
    1348:	02e7f7b3          	remu	a5,a5,a4
    134c:	00c45703          	lhu	a4,12(s0)
    1350:	0742                	slli	a4,a4,0x10
    1352:	8741                	srai	a4,a4,0x10
    1354:	02074e63          	bltz	a4,1390 <USART_Init+0xd8>
    1358:	0792                	slli	a5,a5,0x4
    135a:	03278793          	addi	a5,a5,50
    135e:	06400713          	li	a4,100
    1362:	02e7d7b3          	divu	a5,a5,a4
    1366:	8bbd                	andi	a5,a5,15
    1368:	8fd5                	or	a5,a5,a3
    136a:	07c2                	slli	a5,a5,0x10
    136c:	83c1                	srli	a5,a5,0x10
    136e:	00f41423          	sh	a5,8(s0)
    1372:	6105                	addi	sp,sp,32
    1374:	ee1fe06f          	j	254 <__riscv_restore_0>
    1378:	4762                	lw	a4,24(sp)
    137a:	b75d                	j	1320 <USART_Init+0x68>
    137c:	00171793          	slli	a5,a4,0x1
    1380:	97ba                	add	a5,a5,a4
    1382:	078e                	slli	a5,a5,0x3
    1384:	97ba                	add	a5,a5,a4
    1386:	4098                	lw	a4,0(s1)
    1388:	0706                	slli	a4,a4,0x1
    138a:	02e7d7b3          	divu	a5,a5,a4
    138e:	bf45                	j	133e <USART_Init+0x86>
    1390:	00379713          	slli	a4,a5,0x3
    1394:	03270713          	addi	a4,a4,50 # 40021032 <_eusrstack+0x20019032>
    1398:	06400793          	li	a5,100
    139c:	02f75733          	divu	a4,a4,a5
    13a0:	8b1d                	andi	a4,a4,7
    13a2:	00d767b3          	or	a5,a4,a3
    13a6:	b7d1                	j	136a <USART_Init+0xb2>

000013a8 <USART_Cmd>:
    13a8:	c981                	beqz	a1,13b8 <USART_Cmd+0x10>
    13aa:	00c55783          	lhu	a5,12(a0)
    13ae:	6709                	lui	a4,0x2
    13b0:	8fd9                	or	a5,a5,a4
    13b2:	00f51623          	sh	a5,12(a0)
    13b6:	8082                	ret
    13b8:	00c55703          	lhu	a4,12(a0)
    13bc:	77f9                	lui	a5,0xffffe
    13be:	17fd                	addi	a5,a5,-1
    13c0:	8ff9                	and	a5,a5,a4
    13c2:	00f51623          	sh	a5,12(a0)
    13c6:	8082                	ret

000013c8 <USART_DMACmd>:
    13c8:	c619                	beqz	a2,13d6 <USART_DMACmd+0xe>
    13ca:	01455783          	lhu	a5,20(a0)
    13ce:	8ddd                	or	a1,a1,a5
    13d0:	00b51a23          	sh	a1,20(a0)
    13d4:	8082                	ret
    13d6:	01455783          	lhu	a5,20(a0)
    13da:	fff5c593          	not	a1,a1
    13de:	8dfd                	and	a1,a1,a5
    13e0:	00b51a23          	sh	a1,20(a0)
    13e4:	8082                	ret

000013e6 <usbd_hid_process>:
    13e6:	8441a703          	lw	a4,-1980(gp) # 20000054 <USB_RequestOut>
    13ea:	8401a783          	lw	a5,-1984(gp) # 20000050 <USB_RequestIn>
    13ee:	00f71963          	bne	a4,a5,1400 <usbd_hid_process+0x1a>
    13f2:	83c1c783          	lbu	a5,-1988(gp) # 2000004c <USB_RequestFull>
    13f6:	0ff7f793          	andi	a5,a5,255
    13fa:	4501                	li	a0,0
    13fc:	e391                	bnez	a5,1400 <usbd_hid_process+0x1a>
    13fe:	8082                	ret
    1400:	e31fe2ef          	jal	t0,230 <__riscv_save_0>
    1404:	84418413          	addi	s0,gp,-1980 # 20000054 <USB_RequestOut>
    1408:	401c                	lw	a5,0(s0)
    140a:	84c18493          	addi	s1,gp,-1972 # 2000005c <USB_ResponseIn>
    140e:	4098                	lw	a4,0(s1)
    1410:	071a                	slli	a4,a4,0x6
    1412:	079a                	slli	a5,a5,0x6
    1414:	1ac18593          	addi	a1,gp,428 # 200009bc <USB_Response>
    1418:	95ba                	add	a1,a1,a4
    141a:	0ac18513          	addi	a0,gp,172 # 200008bc <USB_Request>
    141e:	953e                	add	a0,a0,a5
    1420:	746000ef          	jal	ra,1b66 <DAP_ProcessCommand>
    1424:	409c                	lw	a5,0(s1)
    1426:	401c                	lw	a5,0(s0)
    1428:	ffd78713          	addi	a4,a5,-3 # ffffdffd <_eusrstack+0xdfff5ffd>
    142c:	0785                	addi	a5,a5,1
    142e:	00e03733          	snez	a4,a4
    1432:	40e00733          	neg	a4,a4
    1436:	8ff9                	and	a5,a5,a4
    1438:	84418713          	addi	a4,gp,-1980 # 20000054 <USB_RequestOut>
    143c:	c31c                	sw	a5,0(a4)
    143e:	4318                	lw	a4,0(a4)
    1440:	8401a783          	lw	a5,-1984(gp) # 20000050 <USB_RequestIn>
    1444:	02f70c63          	beq	a4,a5,147c <usbd_hid_process+0x96>
    1448:	8081c783          	lbu	a5,-2040(gp) # 20000018 <USB_ResponseIdle>
    144c:	0ff7f793          	andi	a5,a5,255
    1450:	eb8d                	bnez	a5,1482 <usbd_hid_process+0x9c>
    1452:	84c1a783          	lw	a5,-1972(gp) # 2000005c <USB_ResponseIn>
    1456:	ffd78713          	addi	a4,a5,-3
    145a:	0785                	addi	a5,a5,1
    145c:	00e03733          	snez	a4,a4
    1460:	40e00733          	neg	a4,a4
    1464:	8ff9                	and	a5,a5,a4
    1466:	84c18713          	addi	a4,gp,-1972 # 2000005c <USB_ResponseIn>
    146a:	c31c                	sw	a5,0(a4)
    146c:	4318                	lw	a4,0(a4)
    146e:	8501a783          	lw	a5,-1968(gp) # 20000060 <USB_ResponseOut>
    1472:	4505                	li	a0,1
    1474:	04f70363          	beq	a4,a5,14ba <usbd_hid_process+0xd4>
    1478:	dddfe06f          	j	254 <__riscv_restore_0>
    147c:	82018e23          	sb	zero,-1988(gp) # 2000004c <USB_RequestFull>
    1480:	b7e1                	j	1448 <usbd_hid_process+0x62>
    1482:	80018423          	sb	zero,-2040(gp) # 20000018 <USB_ResponseIdle>
    1486:	84c1a783          	lw	a5,-1972(gp) # 2000005c <USB_ResponseIn>
    148a:	079a                	slli	a5,a5,0x6
    148c:	04000613          	li	a2,64
    1490:	1ac18593          	addi	a1,gp,428 # 200009bc <USB_Response>
    1494:	95be                	add	a1,a1,a5
    1496:	aac18513          	addi	a0,gp,-1364 # 200002bc <USBHS_EP1_Tx_Buf>
    149a:	13d030ef          	jal	ra,4dd6 <memcpy>
    149e:	400237b7          	lui	a5,0x40023
    14a2:	04000713          	li	a4,64
    14a6:	4ce79e23          	sh	a4,1244(a5) # 400234dc <_eusrstack+0x2001b4dc>
    14aa:	4de7c703          	lbu	a4,1246(a5)
    14ae:	0fc77713          	andi	a4,a4,252
    14b2:	4ce78f23          	sb	a4,1246(a5)
    14b6:	4505                	li	a0,1
    14b8:	b7c1                	j	1478 <usbd_hid_process+0x92>
    14ba:	4705                	li	a4,1
    14bc:	84e18423          	sb	a4,-1976(gp) # 20000058 <USB_ResponseFull>
    14c0:	bf65                	j	1478 <usbd_hid_process+0x92>

000014c2 <HID_GetOutReport>:
    14c2:	00054703          	lbu	a4,0(a0)
    14c6:	479d                	li	a5,7
    14c8:	04f70963          	beq	a4,a5,151a <HID_GetOutReport+0x58>
    14cc:	83c1c783          	lbu	a5,-1988(gp) # 2000004c <USB_RequestFull>
    14d0:	0ff7f793          	andi	a5,a5,255
    14d4:	c799                	beqz	a5,14e2 <HID_GetOutReport+0x20>
    14d6:	8401a703          	lw	a4,-1984(gp) # 20000050 <USB_RequestIn>
    14da:	8441a783          	lw	a5,-1980(gp) # 20000054 <USB_RequestOut>
    14de:	04f70963          	beq	a4,a5,1530 <HID_GetOutReport+0x6e>
    14e2:	d4ffe2ef          	jal	t0,230 <__riscv_save_0>
    14e6:	862e                	mv	a2,a1
    14e8:	85aa                	mv	a1,a0
    14ea:	84018413          	addi	s0,gp,-1984 # 20000050 <USB_RequestIn>
    14ee:	401c                	lw	a5,0(s0)
    14f0:	079a                	slli	a5,a5,0x6
    14f2:	0ac18513          	addi	a0,gp,172 # 200008bc <USB_Request>
    14f6:	953e                	add	a0,a0,a5
    14f8:	0df030ef          	jal	ra,4dd6 <memcpy>
    14fc:	401c                	lw	a5,0(s0)
    14fe:	0785                	addi	a5,a5,1
    1500:	c01c                	sw	a5,0(s0)
    1502:	4018                	lw	a4,0(s0)
    1504:	4791                	li	a5,4
    1506:	00f70e63          	beq	a4,a5,1522 <HID_GetOutReport+0x60>
    150a:	8401a703          	lw	a4,-1984(gp) # 20000050 <USB_RequestIn>
    150e:	8441a783          	lw	a5,-1980(gp) # 20000054 <USB_RequestOut>
    1512:	00f70b63          	beq	a4,a5,1528 <HID_GetOutReport+0x66>
    1516:	d3ffe06f          	j	254 <__riscv_restore_0>
    151a:	4705                	li	a4,1
    151c:	86e18423          	sb	a4,-1944(gp) # 20000078 <DAP_TransferAbort>
    1520:	8082                	ret
    1522:	8401a023          	sw	zero,-1984(gp) # 20000050 <USB_RequestIn>
    1526:	b7d5                	j	150a <HID_GetOutReport+0x48>
    1528:	4705                	li	a4,1
    152a:	82e18e23          	sb	a4,-1988(gp) # 2000004c <USB_RequestFull>
    152e:	b7e5                	j	1516 <HID_GetOutReport+0x54>
    1530:	8082                	ret

00001532 <HID_SetInReport>:
    1532:	8501a703          	lw	a4,-1968(gp) # 20000060 <USB_ResponseOut>
    1536:	84c1a783          	lw	a5,-1972(gp) # 2000005c <USB_ResponseIn>
    153a:	00f71763          	bne	a4,a5,1548 <HID_SetInReport+0x16>
    153e:	8481c783          	lbu	a5,-1976(gp) # 20000058 <USB_ResponseFull>
    1542:	0ff7f793          	andi	a5,a5,255
    1546:	c3ad                	beqz	a5,15a8 <HID_SetInReport+0x76>
    1548:	ce9fe2ef          	jal	t0,230 <__riscv_save_0>
    154c:	85018413          	addi	s0,gp,-1968 # 20000060 <USB_ResponseOut>
    1550:	401c                	lw	a5,0(s0)
    1552:	079a                	slli	a5,a5,0x6
    1554:	04000613          	li	a2,64
    1558:	1ac18593          	addi	a1,gp,428 # 200009bc <USB_Response>
    155c:	95be                	add	a1,a1,a5
    155e:	aac18513          	addi	a0,gp,-1364 # 200002bc <USBHS_EP1_Tx_Buf>
    1562:	075030ef          	jal	ra,4dd6 <memcpy>
    1566:	400237b7          	lui	a5,0x40023
    156a:	04000713          	li	a4,64
    156e:	4ce79e23          	sh	a4,1244(a5) # 400234dc <_eusrstack+0x2001b4dc>
    1572:	4de7c703          	lbu	a4,1246(a5)
    1576:	0fc77713          	andi	a4,a4,252
    157a:	4ce78f23          	sb	a4,1246(a5)
    157e:	401c                	lw	a5,0(s0)
    1580:	0785                	addi	a5,a5,1
    1582:	c01c                	sw	a5,0(s0)
    1584:	4018                	lw	a4,0(s0)
    1586:	4791                	li	a5,4
    1588:	00f70a63          	beq	a4,a5,159c <HID_SetInReport+0x6a>
    158c:	8501a703          	lw	a4,-1968(gp) # 20000060 <USB_ResponseOut>
    1590:	84c1a783          	lw	a5,-1972(gp) # 2000005c <USB_ResponseIn>
    1594:	00f70763          	beq	a4,a5,15a2 <HID_SetInReport+0x70>
    1598:	cbdfe06f          	j	254 <__riscv_restore_0>
    159c:	8401a823          	sw	zero,-1968(gp) # 20000060 <USB_ResponseOut>
    15a0:	b7f5                	j	158c <HID_SetInReport+0x5a>
    15a2:	84018423          	sb	zero,-1976(gp) # 20000058 <USB_ResponseFull>
    15a6:	bfcd                	j	1598 <HID_SetInReport+0x66>
    15a8:	4705                	li	a4,1
    15aa:	80e18423          	sb	a4,-2040(gp) # 20000018 <USB_ResponseIdle>
    15ae:	8082                	ret

000015b0 <SysTick_Config>:
    15b0:	e000f7b7          	lui	a5,0xe000f
    15b4:	0007a023          	sw	zero,0(a5) # e000f000 <_eusrstack+0xc0007000>
    15b8:	0007a223          	sw	zero,4(a5)
    15bc:	4681                	li	a3,0
    15be:	4701                	li	a4,0
    15c0:	c794                	sw	a3,8(a5)
    15c2:	c7d8                	sw	a4,12(a5)
    15c4:	4681                	li	a3,0
    15c6:	cb88                	sw	a0,16(a5)
    15c8:	cbd4                	sw	a3,20(a5)
    15ca:	473d                	li	a4,15
    15cc:	c398                	sw	a4,0(a5)
    15ce:	e000e7b7          	lui	a5,0xe000e
    15d2:	6705                	lui	a4,0x1
    15d4:	10e7a023          	sw	a4,256(a5) # e000e100 <_eusrstack+0xc0006100>
    15d8:	8082                	ret

000015da <main>:
    15da:	c57fe2ef          	jal	t0,230 <__riscv_save_0>
    15de:	413010ef          	jal	ra,31f0 <DAP_Setup>
    15e2:	282d                	jal	161c <VCOM_Init>
    15e4:	c7dfe0ef          	jal	ra,260 <USBHS_RCC_Init>
    15e8:	4505                	li	a0,1
    15ea:	d35fe0ef          	jal	ra,31e <USBHS_Device_Init>
    15ee:	200007b7          	lui	a5,0x20000
    15f2:	0107a503          	lw	a0,16(a5) # 20000010 <SystemCoreClock>
    15f6:	3e800793          	li	a5,1000
    15fa:	02f55533          	divu	a0,a0,a5
    15fe:	3f4d                	jal	15b0 <SysTick_Config>
    1600:	33dd                	jal	13e6 <usbd_hid_process>
    1602:	22ed                	jal	17ec <VCOM_TransferData>
    1604:	bff5                	j	1600 <main+0x26>

00001606 <SysTick_Handler>:
    1606:	e000f7b7          	lui	a5,0xe000f
    160a:	0007a223          	sw	zero,4(a5) # e000f004 <_eusrstack+0xc0007004>
    160e:	85418793          	addi	a5,gp,-1964 # 20000064 <SysTick_ms>
    1612:	4398                	lw	a4,0(a5)
    1614:	0705                	addi	a4,a4,1
    1616:	c398                	sw	a4,0(a5)
    1618:	30200073          	mret

0000161c <VCOM_Init>:
    161c:	bfbfe2ef          	jal	t0,216 <__riscv_save_4>
    1620:	715d                	addi	sp,sp,-80
    1622:	4585                	li	a1,1
    1624:	4521                	li	a0,8
    1626:	36f9                	jal	11f4 <RCC_APB2PeriphClockCmd>
    1628:	4585                	li	a1,1
    162a:	00040537          	lui	a0,0x40
    162e:	36d5                	jal	1212 <RCC_APB1PeriphClockCmd>
    1630:	4585                	li	a1,1
    1632:	4505                	li	a0,1
    1634:	364d                	jal	11d6 <RCC_AHBPeriphClockCmd>
    1636:	40000793          	li	a5,1024
    163a:	04f11223          	sh	a5,68(sp)
    163e:	47e1                	li	a5,24
    1640:	c6be                	sw	a5,76(sp)
    1642:	478d                	li	a5,3
    1644:	c4be                	sw	a5,72(sp)
    1646:	00cc                	addi	a1,sp,68
    1648:	40011437          	lui	s0,0x40011
    164c:	c0040513          	addi	a0,s0,-1024 # 40010c00 <_eusrstack+0x20008c00>
    1650:	8e1ff0ef          	jal	ra,f30 <GPIO_Init>
    1654:	6785                	lui	a5,0x1
    1656:	80078793          	addi	a5,a5,-2048 # 800 <USBHS_IRQHandler+0x450>
    165a:	04f11223          	sh	a5,68(sp)
    165e:	04800793          	li	a5,72
    1662:	c6be                	sw	a5,76(sp)
    1664:	00cc                	addi	a1,sp,68
    1666:	c0040513          	addi	a0,s0,-1024
    166a:	8c7ff0ef          	jal	ra,f30 <GPIO_Init>
    166e:	47c1                	li	a5,16
    1670:	c83e                	sw	a5,16(sp)
    1672:	40005437          	lui	s0,0x40005
    1676:	80440a13          	addi	s4,s0,-2044 # 40004804 <_eusrstack+0x1fffc804>
    167a:	c452                	sw	s4,8(sp)
    167c:	cc02                	sw	zero,24(sp)
    167e:	6ac18793          	addi	a5,gp,1708 # 20000ebc <TXBuffer>
    1682:	c63e                	sw	a5,12(sp)
    1684:	08000993          	li	s3,128
    1688:	ce4e                	sw	s3,28(sp)
    168a:	d002                	sw	zero,32(sp)
    168c:	d202                	sw	zero,36(sp)
    168e:	ca02                	sw	zero,20(sp)
    1690:	6909                	lui	s2,0x2
    1692:	d64a                	sw	s2,44(sp)
    1694:	d402                	sw	zero,40(sp)
    1696:	d802                	sw	zero,48(sp)
    1698:	002c                	addi	a1,sp,8
    169a:	400204b7          	lui	s1,0x40020
    169e:	01c48513          	addi	a0,s1,28 # 4002001c <_eusrstack+0x2001801c>
    16a2:	833ff0ef          	jal	ra,ed4 <DMA_Init>
    16a6:	4585                	li	a1,1
    16a8:	01c48513          	addi	a0,s1,28
    16ac:	861ff0ef          	jal	ra,f0c <DMA_Cmd>
    16b0:	c802                	sw	zero,16(sp)
    16b2:	c452                	sw	s4,8(sp)
    16b4:	cc02                	sw	zero,24(sp)
    16b6:	2ac18793          	addi	a5,gp,684 # 20000abc <RXBuffer>
    16ba:	c63e                	sw	a5,12(sp)
    16bc:	ce4e                	sw	s3,28(sp)
    16be:	d002                	sw	zero,32(sp)
    16c0:	d202                	sw	zero,36(sp)
    16c2:	40000793          	li	a5,1024
    16c6:	ca3e                	sw	a5,20(sp)
    16c8:	d64a                	sw	s2,44(sp)
    16ca:	02000793          	li	a5,32
    16ce:	d43e                	sw	a5,40(sp)
    16d0:	d802                	sw	zero,48(sp)
    16d2:	002c                	addi	a1,sp,8
    16d4:	03048513          	addi	a0,s1,48
    16d8:	ffcff0ef          	jal	ra,ed4 <DMA_Init>
    16dc:	4585                	li	a1,1
    16de:	03048513          	addi	a0,s1,48
    16e2:	82bff0ef          	jal	ra,f0c <DMA_Cmd>
    16e6:	80c1a783          	lw	a5,-2036(gp) # 2000001c <LineCfg>
    16ea:	da3e                	sw	a5,52(sp)
    16ec:	02011c23          	sh	zero,56(sp)
    16f0:	02011d23          	sh	zero,58(sp)
    16f4:	02011e23          	sh	zero,60(sp)
    16f8:	47b1                	li	a5,12
    16fa:	02f11f23          	sh	a5,62(sp)
    16fe:	04011023          	sh	zero,64(sp)
    1702:	184c                	addi	a1,sp,52
    1704:	80040513          	addi	a0,s0,-2048
    1708:	3e45                	jal	12b8 <USART_Init>
    170a:	4605                	li	a2,1
    170c:	0c000593          	li	a1,192
    1710:	80040513          	addi	a0,s0,-2048
    1714:	3955                	jal	13c8 <USART_DMACmd>
    1716:	4585                	li	a1,1
    1718:	80040513          	addi	a0,s0,-2048
    171c:	3171                	jal	13a8 <USART_Cmd>
    171e:	6161                	addi	sp,sp,80
    1720:	b2bfe06f          	j	24a <__riscv_restore_4>

00001724 <VCOM_LineCoding>:
    1724:	b0dfe2ef          	jal	t0,230 <__riscv_save_0>
    1728:	1141                	addi	sp,sp,-16
    172a:	00011223          	sh	zero,4(sp)
    172e:	00554783          	lbu	a5,5(a0) # 40005 <_data_lma+0x3adf5>
    1732:	4705                	li	a4,1
    1734:	02e78d63          	beq	a5,a4,176e <VCOM_LineCoding+0x4a>
    1738:	01879713          	slli	a4,a5,0x18
    173c:	8761                	srai	a4,a4,0x18
    173e:	c719                	beqz	a4,174c <VCOM_LineCoding+0x28>
    1740:	4709                	li	a4,2
    1742:	02e78e63          	beq	a5,a4,177e <VCOM_LineCoding+0x5a>
    1746:	00011423          	sh	zero,8(sp)
    174a:	a019                	j	1750 <VCOM_LineCoding+0x2c>
    174c:	00011423          	sh	zero,8(sp)
    1750:	00454783          	lbu	a5,4(a0)
    1754:	4705                	li	a4,1
    1756:	08e78363          	beq	a5,a4,17dc <VCOM_LineCoding+0xb8>
    175a:	01879713          	slli	a4,a5,0x18
    175e:	8761                	srai	a4,a4,0x18
    1760:	c71d                	beqz	a4,178e <VCOM_LineCoding+0x6a>
    1762:	4709                	li	a4,2
    1764:	08e78063          	beq	a5,a4,17e4 <VCOM_LineCoding+0xc0>
    1768:	00011323          	sh	zero,6(sp)
    176c:	a01d                	j	1792 <VCOM_LineCoding+0x6e>
    176e:	60000793          	li	a5,1536
    1772:	00f11423          	sh	a5,8(sp)
    1776:	6785                	lui	a5,0x1
    1778:	00f11223          	sh	a5,4(sp)
    177c:	bfd1                	j	1750 <VCOM_LineCoding+0x2c>
    177e:	40000793          	li	a5,1024
    1782:	00f11423          	sh	a5,8(sp)
    1786:	6785                	lui	a5,0x1
    1788:	00f11223          	sh	a5,4(sp)
    178c:	b7d1                	j	1750 <VCOM_LineCoding+0x2c>
    178e:	00011323          	sh	zero,6(sp)
    1792:	00054783          	lbu	a5,0(a0)
    1796:	00154703          	lbu	a4,1(a0)
    179a:	0722                	slli	a4,a4,0x8
    179c:	8f5d                	or	a4,a4,a5
    179e:	00254783          	lbu	a5,2(a0)
    17a2:	07c2                	slli	a5,a5,0x10
    17a4:	8f5d                	or	a4,a4,a5
    17a6:	00354783          	lbu	a5,3(a0)
    17aa:	07e2                	slli	a5,a5,0x18
    17ac:	8fd9                	or	a5,a5,a4
    17ae:	c03e                	sw	a5,0(sp)
    17b0:	47b1                	li	a5,12
    17b2:	00f11523          	sh	a5,10(sp)
    17b6:	00011623          	sh	zero,12(sp)
    17ba:	6419                	lui	s0,0x6
    17bc:	80041073          	csrw	0x800,s0
    17c0:	858a                	mv	a1,sp
    17c2:	40005537          	lui	a0,0x40005
    17c6:	80050513          	addi	a0,a0,-2048 # 40004800 <_eusrstack+0x1fffc800>
    17ca:	aefff0ef          	jal	ra,12b8 <USART_Init>
    17ce:	08840413          	addi	s0,s0,136 # 6088 <_data_lma+0xe78>
    17d2:	80041073          	csrw	0x800,s0
    17d6:	0141                	addi	sp,sp,16
    17d8:	a7dfe06f          	j	254 <__riscv_restore_0>
    17dc:	678d                	lui	a5,0x3
    17de:	00f11323          	sh	a5,6(sp)
    17e2:	bf45                	j	1792 <VCOM_LineCoding+0x6e>
    17e4:	6789                	lui	a5,0x2
    17e6:	00f11323          	sh	a5,6(sp)
    17ea:	b765                	j	1792 <VCOM_LineCoding+0x6e>

000017ec <VCOM_TransferData>:
    17ec:	a45fe2ef          	jal	t0,230 <__riscv_save_0>
    17f0:	200017b7          	lui	a5,0x20001
    17f4:	0bc78713          	addi	a4,a5,188 # 200010bc <Vcom>
    17f8:	6785                	lui	a5,0x1
    17fa:	97ba                	add	a5,a5,a4
    17fc:	a107d783          	lhu	a5,-1520(a5) # a10 <USBHS_IRQHandler+0x660>
    1800:	07c2                	slli	a5,a5,0x10
    1802:	83c1                	srli	a5,a5,0x10
    1804:	ef99                	bnez	a5,1822 <VCOM_TransferData+0x36>
    1806:	200017b7          	lui	a5,0x20001
    180a:	0bc78713          	addi	a4,a5,188 # 200010bc <Vcom>
    180e:	6785                	lui	a5,0x1
    1810:	97ba                	add	a5,a5,a4
    1812:	c147d783          	lhu	a5,-1004(a5) # c14 <USBHS_IRQHandler+0x864>
    1816:	07c2                	slli	a5,a5,0x10
    1818:	83c1                	srli	a5,a5,0x10
    181a:	0e079a63          	bnez	a5,190e <VCOM_TransferData+0x122>
    181e:	a37fe06f          	j	254 <__riscv_restore_0>
    1822:	40020537          	lui	a0,0x40020
    1826:	03050513          	addi	a0,a0,48 # 40020030 <_eusrstack+0x20018030>
    182a:	efeff0ef          	jal	ra,f28 <DMA_GetCurrDataCounter>
    182e:	40000793          	li	a5,1024
    1832:	40a78533          	sub	a0,a5,a0
    1836:	85c1a783          	lw	a5,-1956(gp) # 2000006c <last_pos.4748>
    183a:	40f506b3          	sub	a3,a0,a5
    183e:	1ff00713          	li	a4,511
    1842:	00d76f63          	bltu	a4,a3,1860 <VCOM_TransferData+0x74>
    1846:	08a78363          	beq	a5,a0,18cc <VCOM_TransferData+0xe0>
    184a:	8541a683          	lw	a3,-1964(gp) # 20000064 <SysTick_ms>
    184e:	8581a703          	lw	a4,-1960(gp) # 20000068 <last_ms.4747>
    1852:	06e68d63          	beq	a3,a4,18cc <VCOM_TransferData+0xe0>
    1856:	02f57163          	bgeu	a0,a5,1878 <VCOM_TransferData+0x8c>
    185a:	40000513          	li	a0,1024
    185e:	a029                	j	1868 <VCOM_TransferData+0x7c>
    1860:	00f57463          	bgeu	a0,a5,1868 <VCOM_TransferData+0x7c>
    1864:	40000513          	li	a0,1024
    1868:	40f50733          	sub	a4,a0,a5
    186c:	20000693          	li	a3,512
    1870:	00e6f463          	bgeu	a3,a4,1878 <VCOM_TransferData+0x8c>
    1874:	20078513          	addi	a0,a5,512
    1878:	40f50733          	sub	a4,a0,a5
    187c:	0742                	slli	a4,a4,0x10
    187e:	8341                	srli	a4,a4,0x10
    1880:	200016b7          	lui	a3,0x20001
    1884:	0bc68613          	addi	a2,a3,188 # 200010bc <Vcom>
    1888:	6685                	lui	a3,0x1
    188a:	96b2                	add	a3,a3,a2
    188c:	a0e69723          	sh	a4,-1522(a3) # a0e <USBHS_IRQHandler+0x65e>
    1890:	a0069823          	sh	zero,-1520(a3)
    1894:	2ac18713          	addi	a4,gp,684 # 20000abc <RXBuffer>
    1898:	97ba                	add	a5,a5,a4
    189a:	40023737          	lui	a4,0x40023
    189e:	46f72223          	sw	a5,1124(a4) # 40023464 <_eusrstack+0x2001b464>
    18a2:	a0e6d783          	lhu	a5,-1522(a3)
    18a6:	07c2                	slli	a5,a5,0x10
    18a8:	83c1                	srli	a5,a5,0x10
    18aa:	4ef71223          	sh	a5,1252(a4)
    18ae:	4e674783          	lbu	a5,1254(a4)
    18b2:	0fc7f793          	andi	a5,a5,252
    18b6:	4ef70323          	sb	a5,1254(a4)
    18ba:	3ff57513          	andi	a0,a0,1023
    18be:	84a1ae23          	sw	a0,-1956(gp) # 2000006c <last_pos.4748>
    18c2:	8541a703          	lw	a4,-1964(gp) # 20000064 <SysTick_ms>
    18c6:	84e1ac23          	sw	a4,-1960(gp) # 20000068 <last_ms.4747>
    18ca:	bf35                	j	1806 <VCOM_TransferData+0x1a>
    18cc:	200017b7          	lui	a5,0x20001
    18d0:	0bc78713          	addi	a4,a5,188 # 200010bc <Vcom>
    18d4:	6785                	lui	a5,0x1
    18d6:	97ba                	add	a5,a5,a4
    18d8:	a0e7d783          	lhu	a5,-1522(a5) # a0e <USBHS_IRQHandler+0x65e>
    18dc:	07c2                	slli	a5,a5,0x10
    18de:	83c1                	srli	a5,a5,0x10
    18e0:	20000713          	li	a4,512
    18e4:	f2e791e3          	bne	a5,a4,1806 <VCOM_TransferData+0x1a>
    18e8:	200017b7          	lui	a5,0x20001
    18ec:	0bc78713          	addi	a4,a5,188 # 200010bc <Vcom>
    18f0:	6785                	lui	a5,0x1
    18f2:	97ba                	add	a5,a5,a4
    18f4:	a0079723          	sh	zero,-1522(a5) # a0e <USBHS_IRQHandler+0x65e>
    18f8:	400237b7          	lui	a5,0x40023
    18fc:	4e079223          	sh	zero,1252(a5) # 400234e4 <_eusrstack+0x2001b4e4>
    1900:	4e67c703          	lbu	a4,1254(a5)
    1904:	0fc77713          	andi	a4,a4,252
    1908:	4ee78323          	sb	a4,1254(a5)
    190c:	bded                	j	1806 <VCOM_TransferData+0x1a>
    190e:	40020537          	lui	a0,0x40020
    1912:	0571                	addi	a0,a0,28
    1914:	e14ff0ef          	jal	ra,f28 <DMA_GetCurrDataCounter>
    1918:	f00513e3          	bnez	a0,181e <VCOM_TransferData+0x32>
    191c:	20001437          	lui	s0,0x20001
    1920:	0bc40793          	addi	a5,s0,188 # 200010bc <Vcom>
    1924:	6405                	lui	s0,0x1
    1926:	943e                	add	s0,s0,a5
    1928:	c0041a23          	sh	zero,-1004(s0) # c14 <USBHS_IRQHandler+0x864>
    192c:	c1245603          	lhu	a2,-1006(s0)
    1930:	cac18593          	addi	a1,gp,-852 # 200004bc <USBHS_EP3_Rx_Buf>
    1934:	6ac18513          	addi	a0,gp,1708 # 20000ebc <TXBuffer>
    1938:	49e030ef          	jal	ra,4dd6 <memcpy>
    193c:	4581                	li	a1,0
    193e:	400204b7          	lui	s1,0x40020
    1942:	01c48513          	addi	a0,s1,28 # 4002001c <_eusrstack+0x2001801c>
    1946:	dc6ff0ef          	jal	ra,f0c <DMA_Cmd>
    194a:	c1245583          	lhu	a1,-1006(s0)
    194e:	01c48513          	addi	a0,s1,28
    1952:	dd2ff0ef          	jal	ra,f24 <DMA_SetCurrDataCounter>
    1956:	4585                	li	a1,1
    1958:	01c48513          	addi	a0,s1,28
    195c:	db0ff0ef          	jal	ra,f0c <DMA_Cmd>
    1960:	400237b7          	lui	a5,0x40023
    1964:	4e77c703          	lbu	a4,1255(a5) # 400234e7 <_eusrstack+0x2001b4e7>
    1968:	0fc77713          	andi	a4,a4,252
    196c:	4ee783a3          	sb	a4,1255(a5)
    1970:	b57d                	j	181e <VCOM_TransferData+0x32>

00001972 <int2array>:
    1972:	c205                	beqz	a2,1992 <int2array+0x20>
    1974:	fff60713          	addi	a4,a2,-1
    1978:	0ff77713          	andi	a4,a4,255
    197c:	0705                	addi	a4,a4,1
    197e:	070e                	slli	a4,a4,0x3
    1980:	4781                	li	a5,0
    1982:	00f5d6b3          	srl	a3,a1,a5
    1986:	00d50023          	sb	a3,0(a0) # 40020000 <_eusrstack+0x20018000>
    198a:	07a1                	addi	a5,a5,8
    198c:	0505                	addi	a0,a0,1
    198e:	fee79ae3          	bne	a5,a4,1982 <int2array+0x10>
    1992:	8082                	ret

00001994 <swd_transfer_retry>:
    1994:	883fe2ef          	jal	t0,216 <__riscv_save_4>
    1998:	89aa                	mv	s3,a0
    199a:	892e                	mv	s2,a1
    199c:	4429                	li	s0,10
    199e:	4489                	li	s1,2
    19a0:	85ca                	mv	a1,s2
    19a2:	854e                	mv	a0,s3
    19a4:	235020ef          	jal	ra,43d8 <SWD_Transfer>
    19a8:	00951663          	bne	a0,s1,19b4 <swd_transfer_retry+0x20>
    19ac:	147d                	addi	s0,s0,-1
    19ae:	0ff47413          	andi	s0,s0,255
    19b2:	f47d                	bnez	s0,19a0 <swd_transfer_retry+0xc>
    19b4:	897fe06f          	j	24a <__riscv_restore_4>

000019b8 <swd_write_data>:
    19b8:	879fe2ef          	jal	t0,230 <__riscv_save_0>
    19bc:	1141                	addi	sp,sp,-16
    19be:	842e                	mv	s0,a1
    19c0:	4611                	li	a2,4
    19c2:	85aa                	mv	a1,a0
    19c4:	0068                	addi	a0,sp,12
    19c6:	3775                	jal	1972 <int2array>
    19c8:	006c                	addi	a1,sp,12
    19ca:	4515                	li	a0,5
    19cc:	37e1                	jal	1994 <swd_transfer_retry>
    19ce:	4785                	li	a5,1
    19d0:	00f50763          	beq	a0,a5,19de <swd_write_data+0x26>
    19d4:	4781                	li	a5,0
    19d6:	853e                	mv	a0,a5
    19d8:	0141                	addi	sp,sp,16
    19da:	87bfe06f          	j	254 <__riscv_restore_0>
    19de:	4611                	li	a2,4
    19e0:	85a2                	mv	a1,s0
    19e2:	0068                	addi	a0,sp,12
    19e4:	3779                	jal	1972 <int2array>
    19e6:	006c                	addi	a1,sp,12
    19e8:	4535                	li	a0,13
    19ea:	376d                	jal	1994 <swd_transfer_retry>
    19ec:	4705                	li	a4,1
    19ee:	4781                	li	a5,0
    19f0:	fee513e3          	bne	a0,a4,19d6 <swd_write_data+0x1e>
    19f4:	4581                	li	a1,0
    19f6:	4539                	li	a0,14
    19f8:	3f71                	jal	1994 <swd_transfer_retry>
    19fa:	157d                	addi	a0,a0,-1
    19fc:	00153793          	seqz	a5,a0
    1a00:	bfd9                	j	19d6 <swd_write_data+0x1e>

00001a02 <swd_write_dp>:
    1a02:	47a1                	li	a5,8
    1a04:	00f51963          	bne	a0,a5,1a16 <swd_write_dp+0x14>
    1a08:	8601a703          	lw	a4,-1952(gp) # 20000070 <dap_state>
    1a0c:	4785                	li	a5,1
    1a0e:	02b70663          	beq	a4,a1,1a3a <swd_write_dp+0x38>
    1a12:	86b1a023          	sw	a1,-1952(gp) # 20000070 <dap_state>
    1a16:	81bfe2ef          	jal	t0,230 <__riscv_save_0>
    1a1a:	1141                	addi	sp,sp,-16
    1a1c:	842a                	mv	s0,a0
    1a1e:	4611                	li	a2,4
    1a20:	0068                	addi	a0,sp,12
    1a22:	3f81                	jal	1972 <int2array>
    1a24:	006c                	addi	a1,sp,12
    1a26:	00c47513          	andi	a0,s0,12
    1a2a:	37ad                	jal	1994 <swd_transfer_retry>
    1a2c:	157d                	addi	a0,a0,-1
    1a2e:	00153793          	seqz	a5,a0
    1a32:	853e                	mv	a0,a5
    1a34:	0141                	addi	sp,sp,16
    1a36:	81ffe06f          	j	254 <__riscv_restore_0>
    1a3a:	853e                	mv	a0,a5
    1a3c:	8082                	ret

00001a3e <swd_write_ap>:
    1a3e:	ff2fe2ef          	jal	t0,230 <__riscv_save_0>
    1a42:	1141                	addi	sp,sp,-16
    1a44:	842a                	mv	s0,a0
    1a46:	84ae                	mv	s1,a1
    1a48:	ff0005b7          	lui	a1,0xff000
    1a4c:	0f058593          	addi	a1,a1,240 # ff0000f0 <_eusrstack+0xdeff80f0>
    1a50:	8de9                	and	a1,a1,a0
    1a52:	4521                	li	a0,8
    1a54:	377d                	jal	1a02 <swd_write_dp>
    1a56:	87aa                	mv	a5,a0
    1a58:	c51d                	beqz	a0,1a86 <swd_write_ap+0x48>
    1a5a:	e801                	bnez	s0,1a6a <swd_write_ap+0x2c>
    1a5c:	8641a703          	lw	a4,-1948(gp) # 20000074 <dap_state+0x4>
    1a60:	4785                	li	a5,1
    1a62:	02970263          	beq	a4,s1,1a86 <swd_write_ap+0x48>
    1a66:	8691a223          	sw	s1,-1948(gp) # 20000074 <dap_state+0x4>
    1a6a:	4611                	li	a2,4
    1a6c:	85a6                	mv	a1,s1
    1a6e:	0068                	addi	a0,sp,12
    1a70:	3709                	jal	1972 <int2array>
    1a72:	00c47513          	andi	a0,s0,12
    1a76:	006c                	addi	a1,sp,12
    1a78:	00156513          	ori	a0,a0,1
    1a7c:	3f21                	jal	1994 <swd_transfer_retry>
    1a7e:	4705                	li	a4,1
    1a80:	4781                	li	a5,0
    1a82:	00e50663          	beq	a0,a4,1a8e <swd_write_ap+0x50>
    1a86:	853e                	mv	a0,a5
    1a88:	0141                	addi	sp,sp,16
    1a8a:	fcafe06f          	j	254 <__riscv_restore_0>
    1a8e:	4581                	li	a1,0
    1a90:	4539                	li	a0,14
    1a92:	3709                	jal	1994 <swd_transfer_retry>
    1a94:	157d                	addi	a0,a0,-1
    1a96:	00153793          	seqz	a5,a0
    1a9a:	b7f5                	j	1a86 <swd_write_ap+0x48>

00001a9c <swd_write_word>:
    1a9c:	f94fe2ef          	jal	t0,230 <__riscv_save_0>
    1aa0:	842a                	mv	s0,a0
    1aa2:	84ae                	mv	s1,a1
    1aa4:	230005b7          	lui	a1,0x23000
    1aa8:	05258593          	addi	a1,a1,82 # 23000052 <_eusrstack+0x2ff8052>
    1aac:	4501                	li	a0,0
    1aae:	3f41                	jal	1a3e <swd_write_ap>
    1ab0:	e119                	bnez	a0,1ab6 <swd_write_word+0x1a>
    1ab2:	fa2fe06f          	j	254 <__riscv_restore_0>
    1ab6:	85a6                	mv	a1,s1
    1ab8:	8522                	mv	a0,s0
    1aba:	3dfd                	jal	19b8 <swd_write_data>
    1abc:	00a03533          	snez	a0,a0
    1ac0:	bfcd                	j	1ab2 <swd_write_word+0x16>

00001ac2 <PORT_OFF>:
    1ac2:	f6efe2ef          	jal	t0,230 <__riscv_save_0>
    1ac6:	1141                	addi	sp,sp,-16
    1ac8:	4585                	li	a1,1
    1aca:	4511                	li	a0,4
    1acc:	f28ff0ef          	jal	ra,11f4 <RCC_APB2PeriphClockCmd>
    1ad0:	4585                	li	a1,1
    1ad2:	4521                	li	a0,8
    1ad4:	f20ff0ef          	jal	ra,11f4 <RCC_APB2PeriphClockCmd>
    1ad8:	4585                	li	a1,1
    1ada:	4541                	li	a0,16
    1adc:	f18ff0ef          	jal	ra,11f4 <RCC_APB2PeriphClockCmd>
    1ae0:	6909                	lui	s2,0x2
    1ae2:	01211223          	sh	s2,4(sp)
    1ae6:	4791                	li	a5,4
    1ae8:	c63e                	sw	a5,12(sp)
    1aea:	478d                	li	a5,3
    1aec:	c43e                	sw	a5,8(sp)
    1aee:	004c                	addi	a1,sp,4
    1af0:	40011437          	lui	s0,0x40011
    1af4:	c0040513          	addi	a0,s0,-1024 # 40010c00 <_eusrstack+0x20008c00>
    1af8:	c38ff0ef          	jal	ra,f30 <GPIO_Init>
    1afc:	6485                	lui	s1,0x1
    1afe:	00911223          	sh	s1,4(sp)
    1b02:	004c                	addi	a1,sp,4
    1b04:	c0040513          	addi	a0,s0,-1024
    1b08:	c28ff0ef          	jal	ra,f30 <GPIO_Init>
    1b0c:	01211223          	sh	s2,4(sp)
    1b10:	004c                	addi	a1,sp,4
    1b12:	c0040513          	addi	a0,s0,-1024
    1b16:	c1aff0ef          	jal	ra,f30 <GPIO_Init>
    1b1a:	00911223          	sh	s1,4(sp)
    1b1e:	004c                	addi	a1,sp,4
    1b20:	c0040513          	addi	a0,s0,-1024
    1b24:	c0cff0ef          	jal	ra,f30 <GPIO_Init>
    1b28:	77e1                	lui	a5,0xffff8
    1b2a:	00f11223          	sh	a5,4(sp)
    1b2e:	004c                	addi	a1,sp,4
    1b30:	c0040513          	addi	a0,s0,-1024
    1b34:	bfcff0ef          	jal	ra,f30 <GPIO_Init>
    1b38:	6791                	lui	a5,0x4
    1b3a:	00f11223          	sh	a5,4(sp)
    1b3e:	004c                	addi	a1,sp,4
    1b40:	c0040513          	addi	a0,s0,-1024
    1b44:	becff0ef          	jal	ra,f30 <GPIO_Init>
    1b48:	0141                	addi	sp,sp,16
    1b4a:	f0afe06f          	j	254 <__riscv_restore_0>

00001b4e <DAP_ProcessVendorCommand>:
    1b4e:	57fd                	li	a5,-1
    1b50:	00f58023          	sb	a5,0(a1)
    1b54:	6541                	lui	a0,0x10
    1b56:	0505                	addi	a0,a0,1
    1b58:	8082                	ret

00001b5a <DAP_ProcessVendorCommandEx>:
    1b5a:	57fd                	li	a5,-1
    1b5c:	00f58023          	sb	a5,0(a1)
    1b60:	6541                	lui	a0,0x10
    1b62:	0505                	addi	a0,a0,1
    1b64:	8082                	ret

00001b66 <DAP_ProcessCommand>:
    1b66:	e9afe2ef          	jal	t0,200 <__riscv_save_12>
    1b6a:	7179                	addi	sp,sp,-48
    1b6c:	892a                	mv	s2,a0
    1b6e:	842e                	mv	s0,a1
    1b70:	00054783          	lbu	a5,0(a0) # 10000 <_data_lma+0xadf0>
    1b74:	0807c693          	xori	a3,a5,128
    1b78:	477d                	li	a4,31
    1b7a:	02d77a63          	bgeu	a4,a3,1bae <DAP_ProcessCommand+0x48>
    1b7e:	06078713          	addi	a4,a5,96 # 4060 <JTAG_Transfer+0x53a>
    1b82:	0ff77713          	andi	a4,a4,255
    1b86:	05e00693          	li	a3,94
    1b8a:	02e6f463          	bgeu	a3,a4,1bb2 <DAP_ProcessCommand+0x4c>
    1b8e:	00158c93          	addi	s9,a1,1
    1b92:	00f58023          	sb	a5,0(a1)
    1b96:	4775                	li	a4,29
    1b98:	00f77463          	bgeu	a4,a5,1ba0 <DAP_ProcessCommand+0x3a>
    1b9c:	53e0106f          	j	30da <DAP_ProcessCommand+0x1574>
    1ba0:	078a                	slli	a5,a5,0x2
    1ba2:	6715                	lui	a4,0x5
    1ba4:	16070713          	addi	a4,a4,352 # 5160 <USB_StringVendor+0x14>
    1ba8:	97ba                	add	a5,a5,a4
    1baa:	439c                	lw	a5,0(a5)
    1bac:	8782                	jr	a5
    1bae:	3745                	jal	1b4e <DAP_ProcessVendorCommand>
    1bb0:	acf5                	j	1eac <DAP_ProcessCommand+0x346>
    1bb2:	3765                	jal	1b5a <DAP_ProcessVendorCommandEx>
    1bb4:	ace5                	j	1eac <DAP_ProcessCommand+0x346>
    1bb6:	00154783          	lbu	a5,1(a0)
    1bba:	00258513          	addi	a0,a1,2
    1bbe:	471d                	li	a4,7
    1bc0:	12e78563          	beq	a5,a4,1cea <DAP_ProcessCommand+0x184>
    1bc4:	02f77963          	bgeu	a4,a5,1bf6 <DAP_ProcessCommand+0x90>
    1bc8:	0f100713          	li	a4,241
    1bcc:	14e78963          	beq	a5,a4,1d1e <DAP_ProcessCommand+0x1b8>
    1bd0:	0ef77063          	bgeu	a4,a5,1cb0 <DAP_ProcessCommand+0x14a>
    1bd4:	0fe00713          	li	a4,254
    1bd8:	16e78263          	beq	a5,a4,1d3c <DAP_ProcessCommand+0x1d6>
    1bdc:	0ff00713          	li	a4,255
    1be0:	4501                	li	a0,0
    1be2:	0ce79063          	bne	a5,a4,1ca2 <DAP_ProcessCommand+0x13c>
    1be6:	04000793          	li	a5,64
    1bea:	00f58123          	sb	a5,2(a1)
    1bee:	000581a3          	sb	zero,3(a1)
    1bf2:	4509                	li	a0,2
    1bf4:	a07d                	j	1ca2 <DAP_ProcessCommand+0x13c>
    1bf6:	4709                	li	a4,2
    1bf8:	0ce78763          	beq	a5,a4,1cc6 <DAP_ProcessCommand+0x160>
    1bfc:	04f77563          	bgeu	a4,a5,1c46 <DAP_ProcessCommand+0xe0>
    1c00:	470d                	li	a4,3
    1c02:	0ce78b63          	beq	a5,a4,1cd8 <DAP_ProcessCommand+0x172>
    1c06:	4711                	li	a4,4
    1c08:	4501                	li	a0,0
    1c0a:	08e79c63          	bne	a5,a4,1ca2 <DAP_ProcessCommand+0x13c>
    1c0e:	81818793          	addi	a5,gp,-2024 # 20000028 <DAP_FW_Ver>
    1c12:	0007c503          	lbu	a0,0(a5)
    1c16:	0017c583          	lbu	a1,1(a5)
    1c1a:	0027c603          	lbu	a2,2(a5)
    1c1e:	0037c683          	lbu	a3,3(a5)
    1c22:	0047c703          	lbu	a4,4(a5)
    1c26:	0057c783          	lbu	a5,5(a5)
    1c2a:	00a40123          	sb	a0,2(s0)
    1c2e:	00b401a3          	sb	a1,3(s0)
    1c32:	00c40223          	sb	a2,4(s0)
    1c36:	00d402a3          	sb	a3,5(s0)
    1c3a:	00e40323          	sb	a4,6(s0)
    1c3e:	00f403a3          	sb	a5,7(s0)
    1c42:	4519                	li	a0,6
    1c44:	a8b9                	j	1ca2 <DAP_ProcessCommand+0x13c>
    1c46:	4705                	li	a4,1
    1c48:	04e79c63          	bne	a5,a4,1ca0 <DAP_ProcessCommand+0x13a>
    1c4c:	000057b7          	lui	a5,0x5
    1c50:	1d87ce03          	lbu	t3,472(a5) # 51d8 <USB_StringVendor+0x8c>
    1c54:	1d878793          	addi	a5,a5,472
    1c58:	0017c303          	lbu	t1,1(a5)
    1c5c:	0027c883          	lbu	a7,2(a5)
    1c60:	0037c803          	lbu	a6,3(a5)
    1c64:	0047c583          	lbu	a1,4(a5)
    1c68:	0057c603          	lbu	a2,5(a5)
    1c6c:	0067c683          	lbu	a3,6(a5)
    1c70:	0077c703          	lbu	a4,7(a5)
    1c74:	0087c783          	lbu	a5,8(a5)
    1c78:	01c40123          	sb	t3,2(s0)
    1c7c:	006500a3          	sb	t1,1(a0)
    1c80:	01150123          	sb	a7,2(a0)
    1c84:	010501a3          	sb	a6,3(a0)
    1c88:	00b50223          	sb	a1,4(a0)
    1c8c:	00c502a3          	sb	a2,5(a0)
    1c90:	00d50323          	sb	a3,6(a0)
    1c94:	00e503a3          	sb	a4,7(a0)
    1c98:	00f50423          	sb	a5,8(a0)
    1c9c:	4525                	li	a0,9
    1c9e:	a011                	j	1ca2 <DAP_ProcessCommand+0x13c>
    1ca0:	4501                	li	a0,0
    1ca2:	00a400a3          	sb	a0,1(s0)
    1ca6:	00020d37          	lui	s10,0x20
    1caa:	0d09                	addi	s10,s10,2
    1cac:	956a                	add	a0,a0,s10
    1cae:	aafd                	j	1eac <DAP_ProcessCommand+0x346>
    1cb0:	0f000713          	li	a4,240
    1cb4:	4501                	li	a0,0
    1cb6:	fee796e3          	bne	a5,a4,1ca2 <DAP_ProcessCommand+0x13c>
    1cba:	03300793          	li	a5,51
    1cbe:	00f58123          	sb	a5,2(a1)
    1cc2:	4505                	li	a0,1
    1cc4:	bff9                	j	1ca2 <DAP_ProcessCommand+0x13c>
    1cc6:	4649                	li	a2,18
    1cc8:	000055b7          	lui	a1,0x5
    1ccc:	1e458593          	addi	a1,a1,484 # 51e4 <USB_StringVendor+0x98>
    1cd0:	106030ef          	jal	ra,4dd6 <memcpy>
    1cd4:	4549                	li	a0,18
    1cd6:	b7f1                	j	1ca2 <DAP_ProcessCommand+0x13c>
    1cd8:	4635                	li	a2,13
    1cda:	000055b7          	lui	a1,0x5
    1cde:	1f858593          	addi	a1,a1,504 # 51f8 <USB_StringVendor+0xac>
    1ce2:	0f4030ef          	jal	ra,4dd6 <memcpy>
    1ce6:	4535                	li	a0,13
    1ce8:	bf6d                	j	1ca2 <DAP_ProcessCommand+0x13c>
    1cea:	000057b7          	lui	a5,0x5
    1cee:	2087c583          	lbu	a1,520(a5) # 5208 <USB_StringVendor+0xbc>
    1cf2:	20878793          	addi	a5,a5,520
    1cf6:	0017c603          	lbu	a2,1(a5)
    1cfa:	0027c683          	lbu	a3,2(a5)
    1cfe:	0037c703          	lbu	a4,3(a5)
    1d02:	0047c783          	lbu	a5,4(a5)
    1d06:	00b40123          	sb	a1,2(s0)
    1d0a:	00c500a3          	sb	a2,1(a0)
    1d0e:	00d50123          	sb	a3,2(a0)
    1d12:	00e501a3          	sb	a4,3(a0)
    1d16:	00f50223          	sb	a5,4(a0)
    1d1a:	4515                	li	a0,5
    1d1c:	b759                	j	1ca2 <DAP_ProcessCommand+0x13c>
    1d1e:	04000793          	li	a5,64
    1d22:	00f58123          	sb	a5,2(a1)
    1d26:	04200793          	li	a5,66
    1d2a:	00f581a3          	sb	a5,3(a1)
    1d2e:	47bd                	li	a5,15
    1d30:	00f58223          	sb	a5,4(a1)
    1d34:	000582a3          	sb	zero,5(a1)
    1d38:	4511                	li	a0,4
    1d3a:	b7a5                	j	1ca2 <DAP_ProcessCommand+0x13c>
    1d3c:	4791                	li	a5,4
    1d3e:	00f58123          	sb	a5,2(a1)
    1d42:	4505                	li	a0,1
    1d44:	bfb9                	j	1ca2 <DAP_ProcessCommand+0x13c>
    1d46:	00154783          	lbu	a5,1(a0)
    1d4a:	cb99                	beqz	a5,1d60 <DAP_ProcessCommand+0x1fa>
    1d4c:	4705                	li	a4,1
    1d4e:	02e78e63          	beq	a5,a4,1d8a <DAP_ProcessCommand+0x224>
    1d52:	57fd                	li	a5,-1
    1d54:	00f580a3          	sb	a5,1(a1)
    1d58:	00020537          	lui	a0,0x20
    1d5c:	0505                	addi	a0,a0,1
    1d5e:	a2a1                	j	1ea6 <DAP_ProcessCommand+0x340>
    1d60:	00254783          	lbu	a5,2(a0) # 20002 <_data_lma+0x1adf2>
    1d64:	8b85                	andi	a5,a5,1
    1d66:	cf81                	beqz	a5,1d7e <DAP_ProcessCommand+0x218>
    1d68:	400117b7          	lui	a5,0x40011
    1d6c:	08000713          	li	a4,128
    1d70:	cb98                	sw	a4,16(a5)
    1d72:	000400a3          	sb	zero,1(s0)
    1d76:	00020537          	lui	a0,0x20
    1d7a:	0505                	addi	a0,a0,1
    1d7c:	a22d                	j	1ea6 <DAP_ProcessCommand+0x340>
    1d7e:	400117b7          	lui	a5,0x40011
    1d82:	08000713          	li	a4,128
    1d86:	cbd8                	sw	a4,20(a5)
    1d88:	b7ed                	j	1d72 <DAP_ProcessCommand+0x20c>
    1d8a:	00254783          	lbu	a5,2(a0) # 20002 <_data_lma+0x1adf2>
    1d8e:	8b85                	andi	a5,a5,1
    1d90:	c799                	beqz	a5,1d9e <DAP_ProcessCommand+0x238>
    1d92:	400117b7          	lui	a5,0x40011
    1d96:	08000713          	li	a4,128
    1d9a:	cb98                	sw	a4,16(a5)
    1d9c:	bfd9                	j	1d72 <DAP_ProcessCommand+0x20c>
    1d9e:	400117b7          	lui	a5,0x40011
    1da2:	08000713          	li	a4,128
    1da6:	cbd8                	sw	a4,20(a5)
    1da8:	b7e9                	j	1d72 <DAP_ProcessCommand+0x20c>
    1daa:	00154783          	lbu	a5,1(a0)
    1dae:	cb89                	beqz	a5,1dc0 <DAP_ProcessCommand+0x25a>
    1db0:	4705                	li	a4,1
    1db2:	00e78763          	beq	a5,a4,1dc0 <DAP_ProcessCommand+0x25a>
    1db6:	4709                	li	a4,2
    1db8:	04e78f63          	beq	a5,a4,1e16 <DAP_ProcessCommand+0x2b0>
    1dbc:	4781                	li	a5,0
    1dbe:	a0b9                	j	1e0c <DAP_ProcessCommand+0x2a6>
    1dc0:	200027b7          	lui	a5,0x20002
    1dc4:	4705                	li	a4,1
    1dc6:	cce78a23          	sb	a4,-812(a5) # 20001cd4 <DAP_Data>
    1dca:	6589                	lui	a1,0x2
    1dcc:	400114b7          	lui	s1,0x40011
    1dd0:	c0048513          	addi	a0,s1,-1024 # 40010c00 <_eusrstack+0x20008c00>
    1dd4:	a26ff0ef          	jal	ra,ffa <GPIO_SetBits>
    1dd8:	6585                	lui	a1,0x1
    1dda:	c0048513          	addi	a0,s1,-1024
    1dde:	a1cff0ef          	jal	ra,ffa <GPIO_SetBits>
    1de2:	6789                	lui	a5,0x2
    1de4:	02f11223          	sh	a5,36(sp)
    1de8:	47c1                	li	a5,16
    1dea:	d63e                	sw	a5,44(sp)
    1dec:	478d                	li	a5,3
    1dee:	d43e                	sw	a5,40(sp)
    1df0:	104c                	addi	a1,sp,36
    1df2:	c0048513          	addi	a0,s1,-1024
    1df6:	93aff0ef          	jal	ra,f30 <GPIO_Init>
    1dfa:	6785                	lui	a5,0x1
    1dfc:	02f11223          	sh	a5,36(sp)
    1e00:	104c                	addi	a1,sp,36
    1e02:	c0048513          	addi	a0,s1,-1024
    1e06:	92aff0ef          	jal	ra,f30 <GPIO_Init>
    1e0a:	4785                	li	a5,1
    1e0c:	00f400a3          	sb	a5,1(s0)
    1e10:	6541                	lui	a0,0x10
    1e12:	0505                	addi	a0,a0,1
    1e14:	a849                	j	1ea6 <DAP_ProcessCommand+0x340>
    1e16:	200027b7          	lui	a5,0x20002
    1e1a:	4709                	li	a4,2
    1e1c:	cce78a23          	sb	a4,-812(a5) # 20001cd4 <DAP_Data>
    1e20:	6589                	lui	a1,0x2
    1e22:	400114b7          	lui	s1,0x40011
    1e26:	c0048513          	addi	a0,s1,-1024 # 40010c00 <_eusrstack+0x20008c00>
    1e2a:	9d0ff0ef          	jal	ra,ffa <GPIO_SetBits>
    1e2e:	6585                	lui	a1,0x1
    1e30:	c0048513          	addi	a0,s1,-1024
    1e34:	9c6ff0ef          	jal	ra,ffa <GPIO_SetBits>
    1e38:	65a1                	lui	a1,0x8
    1e3a:	c0048513          	addi	a0,s1,-1024
    1e3e:	9bcff0ef          	jal	ra,ffa <GPIO_SetBits>
    1e42:	6789                	lui	a5,0x2
    1e44:	02f11223          	sh	a5,36(sp)
    1e48:	47c1                	li	a5,16
    1e4a:	d63e                	sw	a5,44(sp)
    1e4c:	478d                	li	a5,3
    1e4e:	d43e                	sw	a5,40(sp)
    1e50:	104c                	addi	a1,sp,36
    1e52:	c0048513          	addi	a0,s1,-1024
    1e56:	8daff0ef          	jal	ra,f30 <GPIO_Init>
    1e5a:	6785                	lui	a5,0x1
    1e5c:	02f11223          	sh	a5,36(sp)
    1e60:	104c                	addi	a1,sp,36
    1e62:	c0048513          	addi	a0,s1,-1024
    1e66:	8caff0ef          	jal	ra,f30 <GPIO_Init>
    1e6a:	77e1                	lui	a5,0xffff8
    1e6c:	02f11223          	sh	a5,36(sp)
    1e70:	104c                	addi	a1,sp,36
    1e72:	c0048513          	addi	a0,s1,-1024
    1e76:	8baff0ef          	jal	ra,f30 <GPIO_Init>
    1e7a:	6791                	lui	a5,0x4
    1e7c:	02f11223          	sh	a5,36(sp)
    1e80:	04800793          	li	a5,72
    1e84:	d63e                	sw	a5,44(sp)
    1e86:	104c                	addi	a1,sp,36
    1e88:	c0048513          	addi	a0,s1,-1024
    1e8c:	8a4ff0ef          	jal	ra,f30 <GPIO_Init>
    1e90:	4789                	li	a5,2
    1e92:	bfad                	j	1e0c <DAP_ProcessCommand+0x2a6>
    1e94:	200027b7          	lui	a5,0x20002
    1e98:	cc078a23          	sb	zero,-812(a5) # 20001cd4 <DAP_Data>
    1e9c:	c27ff0ef          	jal	ra,1ac2 <PORT_OFF>
    1ea0:	000400a3          	sb	zero,1(s0)
    1ea4:	4505                	li	a0,1
    1ea6:	6d41                	lui	s10,0x10
    1ea8:	0d05                	addi	s10,s10,1
    1eaa:	956a                	add	a0,a0,s10
    1eac:	6145                	addi	sp,sp,48
    1eae:	b8efe06f          	j	23c <__riscv_restore_12>
    1eb2:	00254783          	lbu	a5,2(a0) # 10002 <_data_lma+0xadf2>
    1eb6:	07a2                	slli	a5,a5,0x8
    1eb8:	00154703          	lbu	a4,1(a0)
    1ebc:	8f5d                	or	a4,a4,a5
    1ebe:	00171793          	slli	a5,a4,0x1
    1ec2:	97ba                	add	a5,a5,a4
    1ec4:	0792                	slli	a5,a5,0x4
    1ec6:	17fd                	addi	a5,a5,-1
    1ec8:	fffd                	bnez	a5,1ec6 <DAP_ProcessCommand+0x360>
    1eca:	000400a3          	sb	zero,1(s0)
    1ece:	00020537          	lui	a0,0x20
    1ed2:	0505                	addi	a0,a0,1
    1ed4:	bfc9                	j	1ea6 <DAP_ProcessCommand+0x340>
    1ed6:	05fa05b7          	lui	a1,0x5fa0
    1eda:	0591                	addi	a1,a1,4
    1edc:	e000f537          	lui	a0,0xe000f
    1ee0:	d0c50513          	addi	a0,a0,-756 # e000ed0c <_eusrstack+0xc0006d0c>
    1ee4:	bb9ff0ef          	jal	ra,1a9c <swd_write_word>
    1ee8:	4785                	li	a5,1
    1eea:	00f40123          	sb	a5,2(s0)
    1eee:	000400a3          	sb	zero,1(s0)
    1ef2:	4509                	li	a0,2
    1ef4:	bf4d                	j	1ea6 <DAP_ProcessCommand+0x340>
    1ef6:	00154a03          	lbu	s4,1(a0)
    1efa:	8ad2                	mv	s5,s4
    1efc:	00254983          	lbu	s3,2(a0)
    1f00:	00454483          	lbu	s1,4(a0)
    1f04:	04a2                	slli	s1,s1,0x8
    1f06:	00554783          	lbu	a5,5(a0)
    1f0a:	07c2                	slli	a5,a5,0x10
    1f0c:	8cdd                	or	s1,s1,a5
    1f0e:	00354783          	lbu	a5,3(a0)
    1f12:	8cdd                	or	s1,s1,a5
    1f14:	00654783          	lbu	a5,6(a0)
    1f18:	07e2                	slli	a5,a5,0x18
    1f1a:	8cdd                	or	s1,s1,a5
    1f1c:	0019f913          	andi	s2,s3,1
    1f20:	00090a63          	beqz	s2,1f34 <DAP_ProcessCommand+0x3ce>
    1f24:	001a7793          	andi	a5,s4,1
    1f28:	c7e5                	beqz	a5,2010 <DAP_ProcessCommand+0x4aa>
    1f2a:	400117b7          	lui	a5,0x40011
    1f2e:	6709                	lui	a4,0x2
    1f30:	c0e7a823          	sw	a4,-1008(a5) # 40010c10 <_eusrstack+0x20008c10>
    1f34:	0029fb13          	andi	s6,s3,2
    1f38:	000b0a63          	beqz	s6,1f4c <DAP_ProcessCommand+0x3e6>
    1f3c:	002a7793          	andi	a5,s4,2
    1f40:	cff1                	beqz	a5,201c <DAP_ProcessCommand+0x4b6>
    1f42:	400117b7          	lui	a5,0x40011
    1f46:	6705                	lui	a4,0x1
    1f48:	c0e7a823          	sw	a4,-1008(a5) # 40010c10 <_eusrstack+0x20008c10>
    1f4c:	0049fb93          	andi	s7,s3,4
    1f50:	000b8b63          	beqz	s7,1f66 <DAP_ProcessCommand+0x400>
    1f54:	002a5793          	srli	a5,s4,0x2
    1f58:	8b85                	andi	a5,a5,1
    1f5a:	c7f9                	beqz	a5,2028 <DAP_ProcessCommand+0x4c2>
    1f5c:	400117b7          	lui	a5,0x40011
    1f60:	6721                	lui	a4,0x8
    1f62:	c0e7a823          	sw	a4,-1008(a5) # 40010c10 <_eusrstack+0x20008c10>
    1f66:	01899c13          	slli	s8,s3,0x18
    1f6a:	418c5c13          	srai	s8,s8,0x18
    1f6e:	0c0c4363          	bltz	s8,2034 <DAP_ProcessCommand+0x4ce>
    1f72:	ccb9                	beqz	s1,1fd0 <DAP_ProcessCommand+0x46a>
    1f74:	001a5693          	srli	a3,s4,0x1
    1f78:	002a5613          	srli	a2,s4,0x2
    1f7c:	005a5593          	srli	a1,s4,0x5
    1f80:	007a5a13          	srli	s4,s4,0x7
    1f84:	40011737          	lui	a4,0x40011
    1f88:	0209f993          	andi	s3,s3,32
    1f8c:	00090863          	beqz	s2,1f9c <DAP_ProcessCommand+0x436>
    1f90:	c0872783          	lw	a5,-1016(a4) # 40010c08 <_eusrstack+0x20008c08>
    1f94:	83b5                	srli	a5,a5,0xd
    1f96:	8b85                	andi	a5,a5,1
    1f98:	fefa9ae3          	bne	s5,a5,1f8c <DAP_ProcessCommand+0x426>
    1f9c:	000b0863          	beqz	s6,1fac <DAP_ProcessCommand+0x446>
    1fa0:	c0872783          	lw	a5,-1016(a4)
    1fa4:	83b1                	srli	a5,a5,0xc
    1fa6:	8b85                	andi	a5,a5,1
    1fa8:	fef692e3          	bne	a3,a5,1f8c <DAP_ProcessCommand+0x426>
    1fac:	000b8863          	beqz	s7,1fbc <DAP_ProcessCommand+0x456>
    1fb0:	c0872783          	lw	a5,-1016(a4)
    1fb4:	83bd                	srli	a5,a5,0xf
    1fb6:	8b85                	andi	a5,a5,1
    1fb8:	fcf61ae3          	bne	a2,a5,1f8c <DAP_ProcessCommand+0x426>
    1fbc:	00098363          	beqz	s3,1fc2 <DAP_ProcessCommand+0x45c>
    1fc0:	f5f1                	bnez	a1,1f8c <DAP_ProcessCommand+0x426>
    1fc2:	000c5763          	bgez	s8,1fd0 <DAP_ProcessCommand+0x46a>
    1fc6:	471c                	lw	a5,8(a4)
    1fc8:	83a1                	srli	a5,a5,0x8
    1fca:	8b85                	andi	a5,a5,1
    1fcc:	fcfa10e3          	bne	s4,a5,1f8c <DAP_ProcessCommand+0x426>
    1fd0:	40011537          	lui	a0,0x40011
    1fd4:	c0852603          	lw	a2,-1016(a0) # 40010c08 <_eusrstack+0x20008c08>
    1fd8:	c0852783          	lw	a5,-1016(a0)
    1fdc:	c0852583          	lw	a1,-1016(a0)
    1fe0:	c0852683          	lw	a3,-1016(a0)
    1fe4:	4518                	lw	a4,8(a0)
    1fe6:	83ad                	srli	a5,a5,0xb
    1fe8:	8b89                	andi	a5,a5,2
    1fea:	81b5                	srli	a1,a1,0xd
    1fec:	8991                	andi	a1,a1,4
    1fee:	8fcd                	or	a5,a5,a1
    1ff0:	8235                	srli	a2,a2,0xd
    1ff2:	8a05                	andi	a2,a2,1
    1ff4:	8fd1                	or	a5,a5,a2
    1ff6:	82ad                	srli	a3,a3,0xb
    1ff8:	8aa1                	andi	a3,a3,8
    1ffa:	8fd5                	or	a5,a5,a3
    1ffc:	8305                	srli	a4,a4,0x1
    1ffe:	08077713          	andi	a4,a4,128
    2002:	8fd9                	or	a5,a5,a4
    2004:	00f400a3          	sb	a5,1(s0)
    2008:	00060537          	lui	a0,0x60
    200c:	0505                	addi	a0,a0,1
    200e:	bd61                	j	1ea6 <DAP_ProcessCommand+0x340>
    2010:	400117b7          	lui	a5,0x40011
    2014:	6709                	lui	a4,0x2
    2016:	c0e7aa23          	sw	a4,-1004(a5) # 40010c14 <_eusrstack+0x20008c14>
    201a:	bf29                	j	1f34 <DAP_ProcessCommand+0x3ce>
    201c:	400117b7          	lui	a5,0x40011
    2020:	6705                	lui	a4,0x1
    2022:	c0e7aa23          	sw	a4,-1004(a5) # 40010c14 <_eusrstack+0x20008c14>
    2026:	b71d                	j	1f4c <DAP_ProcessCommand+0x3e6>
    2028:	400117b7          	lui	a5,0x40011
    202c:	6721                	lui	a4,0x8
    202e:	c0e7aa23          	sw	a4,-1004(a5) # 40010c14 <_eusrstack+0x20008c14>
    2032:	bf15                	j	1f66 <DAP_ProcessCommand+0x400>
    2034:	007a5793          	srli	a5,s4,0x7
    2038:	c799                	beqz	a5,2046 <DAP_ProcessCommand+0x4e0>
    203a:	400117b7          	lui	a5,0x40011
    203e:	10000713          	li	a4,256
    2042:	cb98                	sw	a4,16(a5)
    2044:	b73d                	j	1f72 <DAP_ProcessCommand+0x40c>
    2046:	400117b7          	lui	a5,0x40011
    204a:	10000713          	li	a4,256
    204e:	cbd8                	sw	a4,20(a5)
    2050:	05fa05b7          	lui	a1,0x5fa0
    2054:	0591                	addi	a1,a1,4
    2056:	e000f537          	lui	a0,0xe000f
    205a:	d0c50513          	addi	a0,a0,-756 # e000ed0c <_eusrstack+0xc0006d0c>
    205e:	a3fff0ef          	jal	ra,1a9c <swd_write_word>
    2062:	bf01                	j	1f72 <DAP_ProcessCommand+0x40c>
    2064:	00254783          	lbu	a5,2(a0)
    2068:	07a2                	slli	a5,a5,0x8
    206a:	00354703          	lbu	a4,3(a0)
    206e:	0742                	slli	a4,a4,0x10
    2070:	8fd9                	or	a5,a5,a4
    2072:	00154703          	lbu	a4,1(a0)
    2076:	8fd9                	or	a5,a5,a4
    2078:	00454703          	lbu	a4,4(a0)
    207c:	0762                	slli	a4,a4,0x18
    207e:	8fd9                	or	a5,a5,a4
    2080:	c795                	beqz	a5,20ac <DAP_ProcessCommand+0x546>
    2082:	02255737          	lui	a4,0x2255
    2086:	0ff70713          	addi	a4,a4,255 # 22550ff <_data_lma+0x224feef>
    208a:	02f77863          	bgeu	a4,a5,20ba <DAP_ProcessCommand+0x554>
    208e:	200027b7          	lui	a5,0x20002
    2092:	cd478793          	addi	a5,a5,-812 # 20001cd4 <DAP_Data>
    2096:	4705                	li	a4,1
    2098:	00e780a3          	sb	a4,1(a5)
    209c:	4705                	li	a4,1
    209e:	c3d8                	sw	a4,4(a5)
    20a0:	000400a3          	sb	zero,1(s0)
    20a4:	00040537          	lui	a0,0x40
    20a8:	0505                	addi	a0,a0,1
    20aa:	bbf5                	j	1ea6 <DAP_ProcessCommand+0x340>
    20ac:	57fd                	li	a5,-1
    20ae:	00f580a3          	sb	a5,1(a1) # 5fa0001 <_data_lma+0x5f9adf1>
    20b2:	00040537          	lui	a0,0x40
    20b6:	0505                	addi	a0,a0,1
    20b8:	b3fd                	j	1ea6 <DAP_ProcessCommand+0x340>
    20ba:	20002737          	lui	a4,0x20002
    20be:	cc070aa3          	sb	zero,-811(a4) # 20001cd5 <DAP_Data+0x1>
    20c2:	044aa737          	lui	a4,0x44aa
    20c6:	1ff70713          	addi	a4,a4,511 # 44aa1ff <_data_lma+0x44a4fef>
    20ca:	973e                	add	a4,a4,a5
    20cc:	02f757b3          	divu	a5,a4,a5
    20d0:	4689                	li	a3,2
    20d2:	4705                	li	a4,1
    20d4:	00f6f563          	bgeu	a3,a5,20de <DAP_ProcessCommand+0x578>
    20d8:	470d                	li	a4,3
    20da:	02e7d733          	divu	a4,a5,a4
    20de:	200027b7          	lui	a5,0x20002
    20e2:	cce7ac23          	sw	a4,-808(a5) # 20001cd8 <DAP_Data+0x4>
    20e6:	bf6d                	j	20a0 <DAP_ProcessCommand+0x53a>
    20e8:	00250593          	addi	a1,a0,2 # 40002 <_data_lma+0x3adf2>
    20ec:	00154483          	lbu	s1,1(a0)
    20f0:	e099                	bnez	s1,20f6 <DAP_ProcessCommand+0x590>
    20f2:	10000493          	li	s1,256
    20f6:	8526                	mv	a0,s1
    20f8:	19e020ef          	jal	ra,4296 <SWJ_Sequence>
    20fc:	000400a3          	sb	zero,1(s0)
    2100:	00748513          	addi	a0,s1,7
    2104:	810d                	srli	a0,a0,0x3
    2106:	0505                	addi	a0,a0,1
    2108:	0542                	slli	a0,a0,0x10
    210a:	00156513          	ori	a0,a0,1
    210e:	bb61                	j	1ea6 <DAP_ProcessCommand+0x340>
    2110:	00154783          	lbu	a5,1(a0)
    2114:	20002737          	lui	a4,0x20002
    2118:	cd470713          	addi	a4,a4,-812 # 20001cd4 <DAP_Data>
    211c:	0037f693          	andi	a3,a5,3
    2120:	0685                	addi	a3,a3,1
    2122:	00d70c23          	sb	a3,24(a4)
    2126:	8389                	srli	a5,a5,0x2
    2128:	8b85                	andi	a5,a5,1
    212a:	00f70ca3          	sb	a5,25(a4)
    212e:	000580a3          	sb	zero,1(a1)
    2132:	6541                	lui	a0,0x10
    2134:	0505                	addi	a0,a0,1
    2136:	bb85                	j	1ea6 <DAP_ProcessCommand+0x340>
    2138:	00258a13          	addi	s4,a1,2
    213c:	000580a3          	sb	zero,1(a1)
    2140:	00250793          	addi	a5,a0,2 # 10002 <_data_lma+0xadf2>
    2144:	00154903          	lbu	s2,1(a0)
    2148:	4d05                	li	s10,1
    214a:	4405                	li	s0,1
    214c:	5c7d                	li	s8,-1
    214e:	40011bb7          	lui	s7,0x40011
    2152:	6b05                	lui	s6,0x1
    2154:	fff10ab7          	lui	s5,0xfff10
    2158:	1afd                	addi	s5,s5,-1
    215a:	00030cb7          	lui	s9,0x30
    215e:	00080db7          	lui	s11,0x80
    2162:	a825                	j	219a <DAP_ProcessCommand+0x634>
    2164:	c16ba823          	sw	s6,-1008(s7) # 40010c10 <_eusrstack+0x20008c10>
    2168:	c04ba783          	lw	a5,-1020(s7)
    216c:	0157f7b3          	and	a5,a5,s5
    2170:	01b7e7b3          	or	a5,a5,s11
    2174:	c0fba223          	sw	a5,-1020(s7)
    2178:	8652                	mv	a2,s4
    217a:	85ce                	mv	a1,s3
    217c:	178020ef          	jal	ra,42f4 <SWD_Sequence>
    2180:	00091463          	bnez	s2,2188 <DAP_ProcessCommand+0x622>
    2184:	0540106f          	j	31d8 <DAP_ProcessCommand+0x1672>
    2188:	0405                	addi	s0,s0,1
    218a:	9a26                	add	s4,s4,s1
    218c:	9d26                	add	s10,s10,s1
    218e:	87ce                	mv	a5,s3
    2190:	a029                	j	219a <DAP_ProcessCommand+0x634>
    2192:	009987b3          	add	a5,s3,s1
    2196:	0405                	addi	s0,s0,1
    2198:	9426                	add	s0,s0,s1
    219a:	197d                	addi	s2,s2,-1
    219c:	05890d63          	beq	s2,s8,21f6 <DAP_ProcessCommand+0x690>
    21a0:	00178993          	addi	s3,a5,1
    21a4:	0007c503          	lbu	a0,0(a5)
    21a8:	03f57493          	andi	s1,a0,63
    21ac:	e099                	bnez	s1,21b2 <DAP_ProcessCommand+0x64c>
    21ae:	04000493          	li	s1,64
    21b2:	049d                	addi	s1,s1,7
    21b4:	808d                	srli	s1,s1,0x3
    21b6:	01851793          	slli	a5,a0,0x18
    21ba:	87e1                	srai	a5,a5,0x18
    21bc:	fa07c4e3          	bltz	a5,2164 <DAP_ProcessCommand+0x5fe>
    21c0:	c16baa23          	sw	s6,-1004(s7)
    21c4:	c04ba783          	lw	a5,-1020(s7)
    21c8:	0157f7b3          	and	a5,a5,s5
    21cc:	0197e7b3          	or	a5,a5,s9
    21d0:	c0fba223          	sw	a5,-1020(s7)
    21d4:	8652                	mv	a2,s4
    21d6:	85ce                	mv	a1,s3
    21d8:	11c020ef          	jal	ra,42f4 <SWD_Sequence>
    21dc:	fa091be3          	bnez	s2,2192 <DAP_ProcessCommand+0x62c>
    21e0:	c16baa23          	sw	s6,-1004(s7)
    21e4:	c04ba783          	lw	a5,-1020(s7)
    21e8:	0157f7b3          	and	a5,a5,s5
    21ec:	0197e7b3          	or	a5,a5,s9
    21f0:	c0fba223          	sw	a5,-1020(s7)
    21f4:	bf79                	j	2192 <DAP_ProcessCommand+0x62c>
    21f6:	01041513          	slli	a0,s0,0x10
    21fa:	01a56533          	or	a0,a0,s10
    21fe:	b165                	j	1ea6 <DAP_ProcessCommand+0x340>
    2200:	00258a13          	addi	s4,a1,2
    2204:	000580a3          	sb	zero,1(a1)
    2208:	00250793          	addi	a5,a0,2
    220c:	00154983          	lbu	s3,1(a0)
    2210:	4d05                	li	s10,1
    2212:	4405                	li	s0,1
    2214:	5afd                	li	s5,-1
    2216:	04000b13          	li	s6,64
    221a:	a015                	j	223e <DAP_ProcessCommand+0x6d8>
    221c:	049d                	addi	s1,s1,7
    221e:	808d                	srli	s1,s1,0x3
    2220:	8652                	mv	a2,s4
    2222:	85de                	mv	a1,s7
    2224:	854a                	mv	a0,s2
    2226:	05a010ef          	jal	ra,3280 <JTAG_Sequence>
    222a:	009b87b3          	add	a5,s7,s1
    222e:	00148713          	addi	a4,s1,1
    2232:	943a                	add	s0,s0,a4
    2234:	0962                	slli	s2,s2,0x18
    2236:	41895913          	srai	s2,s2,0x18
    223a:	00094e63          	bltz	s2,2256 <DAP_ProcessCommand+0x6f0>
    223e:	19fd                	addi	s3,s3,-1
    2240:	01598e63          	beq	s3,s5,225c <DAP_ProcessCommand+0x6f6>
    2244:	00178b93          	addi	s7,a5,1
    2248:	0007c903          	lbu	s2,0(a5)
    224c:	03f97493          	andi	s1,s2,63
    2250:	f4f1                	bnez	s1,221c <DAP_ProcessCommand+0x6b6>
    2252:	84da                	mv	s1,s6
    2254:	b7e1                	j	221c <DAP_ProcessCommand+0x6b6>
    2256:	9a26                	add	s4,s4,s1
    2258:	9d26                	add	s10,s10,s1
    225a:	b7d5                	j	223e <DAP_ProcessCommand+0x6d8>
    225c:	01041513          	slli	a0,s0,0x10
    2260:	01a56533          	or	a0,a0,s10
    2264:	b189                	j	1ea6 <DAP_ProcessCommand+0x340>
    2266:	00250613          	addi	a2,a0,2
    226a:	00154783          	lbu	a5,1(a0)
    226e:	20002737          	lui	a4,0x20002
    2272:	cef70723          	sb	a5,-786(a4) # 20001cee <DAP_Data+0x1a>
    2276:	c7b1                	beqz	a5,22c2 <DAP_ProcessCommand+0x75c>
    2278:	200025b7          	lui	a1,0x20002
    227c:	cd458513          	addi	a0,a1,-812 # 20001cd4 <DAP_Data>
    2280:	0571                	addi	a0,a0,28
    2282:	cd458693          	addi	a3,a1,-812
    2286:	00278713          	addi	a4,a5,2
    228a:	993a                	add	s2,s2,a4
    228c:	cd458593          	addi	a1,a1,-812
    2290:	4701                	li	a4,0
    2292:	0605                	addi	a2,a2,1
    2294:	fff64803          	lbu	a6,-1(a2)
    2298:	01050023          	sb	a6,0(a0)
    229c:	02e59223          	sh	a4,36(a1)
    22a0:	9742                	add	a4,a4,a6
    22a2:	0505                	addi	a0,a0,1
    22a4:	0589                	addi	a1,a1,2
    22a6:	ff2616e3          	bne	a2,s2,2292 <DAP_ProcessCommand+0x72c>
    22aa:	00d78533          	add	a0,a5,a3
    22ae:	8636                	mv	a2,a3
    22b0:	01c6c583          	lbu	a1,28(a3)
    22b4:	8f0d                	sub	a4,a4,a1
    22b6:	02e61a23          	sh	a4,52(a2)
    22ba:	0685                	addi	a3,a3,1
    22bc:	0609                	addi	a2,a2,2
    22be:	fea699e3          	bne	a3,a0,22b0 <DAP_ProcessCommand+0x74a>
    22c2:	000400a3          	sb	zero,1(s0)
    22c6:	00178513          	addi	a0,a5,1
    22ca:	0542                	slli	a0,a0,0x10
    22cc:	00156513          	ori	a0,a0,1
    22d0:	bed9                	j	1ea6 <DAP_ProcessCommand+0x340>
    22d2:	200027b7          	lui	a5,0x20002
    22d6:	cd47c703          	lbu	a4,-812(a5) # 20001cd4 <DAP_Data>
    22da:	4789                	li	a5,2
    22dc:	00f71e63          	bne	a4,a5,22f8 <DAP_ProcessCommand+0x792>
    22e0:	00154703          	lbu	a4,1(a0)
    22e4:	200027b7          	lui	a5,0x20002
    22e8:	cd478793          	addi	a5,a5,-812 # 20001cd4 <DAP_Data>
    22ec:	00e78da3          	sb	a4,27(a5)
    22f0:	01a7c783          	lbu	a5,26(a5)
    22f4:	00f76863          	bltu	a4,a5,2304 <DAP_ProcessCommand+0x79e>
    22f8:	57fd                	li	a5,-1
    22fa:	00f400a3          	sb	a5,1(s0)
    22fe:	6541                	lui	a0,0x10
    2300:	0505                	addi	a0,a0,1
    2302:	b655                	j	1ea6 <DAP_ProcessCommand+0x340>
    2304:	4539                	li	a0,14
    2306:	440010ef          	jal	ra,3746 <JTAG_IR>
    230a:	060010ef          	jal	ra,336a <JTAG_ReadIDCode>
    230e:	000400a3          	sb	zero,1(s0)
    2312:	00a40123          	sb	a0,2(s0)
    2316:	00855793          	srli	a5,a0,0x8
    231a:	00f401a3          	sb	a5,3(s0)
    231e:	01055793          	srli	a5,a0,0x10
    2322:	00f40223          	sb	a5,4(s0)
    2326:	8161                	srli	a0,a0,0x18
    2328:	00a402a3          	sb	a0,5(s0)
    232c:	6541                	lui	a0,0x10
    232e:	0515                	addi	a0,a0,5
    2330:	be9d                	j	1ea6 <DAP_ProcessCommand+0x340>
    2332:	00154703          	lbu	a4,1(a0) # 10001 <_data_lma+0xadf1>
    2336:	200027b7          	lui	a5,0x20002
    233a:	cd478793          	addi	a5,a5,-812 # 20001cd4 <DAP_Data>
    233e:	00e78623          	sb	a4,12(a5)
    2342:	00354703          	lbu	a4,3(a0)
    2346:	0722                	slli	a4,a4,0x8
    2348:	00254683          	lbu	a3,2(a0)
    234c:	8f55                	or	a4,a4,a3
    234e:	00e79823          	sh	a4,16(a5)
    2352:	00554703          	lbu	a4,5(a0)
    2356:	0722                	slli	a4,a4,0x8
    2358:	00454683          	lbu	a3,4(a0)
    235c:	8f55                	or	a4,a4,a3
    235e:	00e79923          	sh	a4,18(a5)
    2362:	000580a3          	sb	zero,1(a1)
    2366:	00050537          	lui	a0,0x50
    236a:	0505                	addi	a0,a0,1
    236c:	be2d                	j	1ea6 <DAP_ProcessCommand+0x340>
    236e:	00150793          	addi	a5,a0,1 # 50001 <_data_lma+0x4adf1>
    2372:	ce3e                	sw	a5,28(sp)
    2374:	200027b7          	lui	a5,0x20002
    2378:	cd47c703          	lbu	a4,-812(a5) # 20001cd4 <DAP_Data>
    237c:	c83a                	sw	a4,16(sp)
    237e:	4785                	li	a5,1
    2380:	02f70663          	beq	a4,a5,23ac <DAP_ProcessCommand+0x846>
    2384:	4789                	li	a5,2
    2386:	48f70c63          	beq	a4,a5,281e <DAP_ProcessCommand+0xcb8>
    238a:	00350793          	addi	a5,a0,3
    238e:	00254683          	lbu	a3,2(a0)
    2392:	0e0691e3          	bnez	a3,2c74 <DAP_ProcessCommand+0x110e>
    2396:	000400a3          	sb	zero,1(s0)
    239a:	00040123          	sb	zero,2(s0)
    239e:	4772                	lw	a4,28(sp)
    23a0:	40e78533          	sub	a0,a5,a4
    23a4:	0542                	slli	a0,a0,0x10
    23a6:	00256513          	ori	a0,a0,2
    23aa:	bcf5                	j	1ea6 <DAP_ProcessCommand+0x340>
    23ac:	00358d13          	addi	s10,a1,3
    23b0:	86018423          	sb	zero,-1944(gp) # 20000078 <DAP_TransferAbort>
    23b4:	00350a13          	addi	s4,a0,3
    23b8:	00254b83          	lbu	s7,2(a0)
    23bc:	440b8e63          	beqz	s7,2818 <DAP_ProcessCommand+0xcb2>
    23c0:	cc02                	sw	zero,24(sp)
    23c2:	4501                	li	a0,0
    23c4:	c602                	sw	zero,12(sp)
    23c6:	4b01                	li	s6,0
    23c8:	20002ab7          	lui	s5,0x20002
    23cc:	cd4a8a93          	addi	s5,s5,-812 # 20001cd4 <DAP_Data>
    23d0:	4989                	li	s3,2
    23d2:	893e                	mv	s2,a5
    23d4:	acbd                	j	2652 <DAP_ProcessCommand+0xaec>
    23d6:	104c                	addi	a1,sp,36
    23d8:	4522                	lw	a0,8(sp)
    23da:	7ff010ef          	jal	ra,43d8 <SWD_Transfer>
    23de:	01351f63          	bne	a0,s3,23fc <DAP_ProcessCommand+0x896>
    23e2:	500c0be3          	beqz	s8,30f8 <DAP_ProcessCommand+0x1592>
    23e6:	86818793          	addi	a5,gp,-1944 # 20000078 <DAP_TransferAbort>
    23ea:	0007c783          	lbu	a5,0(a5)
    23ee:	0ff7f793          	andi	a5,a5,255
    23f2:	1c7d                	addi	s8,s8,-1
    23f4:	d3ed                	beqz	a5,23d6 <DAP_ProcessCommand+0x870>
    23f6:	5030006f          	j	30f8 <DAP_ProcessCommand+0x1592>
    23fa:	4b01                	li	s6,0
    23fc:	4785                	li	a5,1
    23fe:	5cf513e3          	bne	a0,a5,31c4 <DAP_ProcessCommand+0x165e>
    2402:	5792                	lw	a5,36(sp)
    2404:	00fd0023          	sb	a5,0(s10) # 10000 <_data_lma+0xadf0>
    2408:	0087d713          	srli	a4,a5,0x8
    240c:	00ed00a3          	sb	a4,1(s10)
    2410:	0107d713          	srli	a4,a5,0x10
    2414:	00ed0123          	sb	a4,2(s10)
    2418:	004d0713          	addi	a4,s10,4
    241c:	83e1                	srli	a5,a5,0x18
    241e:	00fd01a3          	sb	a5,3(s10)
    2422:	020b0c63          	beqz	s6,245a <DAP_ProcessCommand+0x8f4>
    2426:	01849793          	slli	a5,s1,0x18
    242a:	87e1                	srai	a5,a5,0x18
    242c:	0007c563          	bltz	a5,2436 <DAP_ProcessCommand+0x8d0>
    2430:	855a                	mv	a0,s6
    2432:	8d3a                	mv	s10,a4
    2434:	a025                	j	245c <DAP_ProcessCommand+0x8f6>
    2436:	008aa783          	lw	a5,8(s5)
    243a:	00fd0223          	sb	a5,4(s10)
    243e:	0087d713          	srli	a4,a5,0x8
    2442:	00ed02a3          	sb	a4,5(s10)
    2446:	0107d713          	srli	a4,a5,0x10
    244a:	00ed0323          	sb	a4,6(s10)
    244e:	83e1                	srli	a5,a5,0x18
    2450:	00fd03a3          	sb	a5,7(s10)
    2454:	855a                	mv	a0,s6
    2456:	0d21                	addi	s10,s10,8
    2458:	a011                	j	245c <DAP_ProcessCommand+0x8f6>
    245a:	8d3a                	mv	s10,a4
    245c:	0104f793          	andi	a5,s1,16
    2460:	cbdd                	beqz	a5,2516 <DAP_ProcessCommand+0x9b0>
    2462:	002a4c03          	lbu	s8,2(s4)
    2466:	0c22                	slli	s8,s8,0x8
    2468:	003a4783          	lbu	a5,3(s4)
    246c:	07c2                	slli	a5,a5,0x10
    246e:	00fc6c33          	or	s8,s8,a5
    2472:	001a4783          	lbu	a5,1(s4)
    2476:	00fc6c33          	or	s8,s8,a5
    247a:	004a4783          	lbu	a5,4(s4)
    247e:	07e2                	slli	a5,a5,0x18
    2480:	00fc6c33          	or	s8,s8,a5
    2484:	005a0793          	addi	a5,s4,5
    2488:	ca3e                	sw	a5,20(sp)
    248a:	012ada03          	lhu	s4,18(s5)
    248e:	8885                	andi	s1,s1,1
    2490:	c885                	beqz	s1,24c0 <DAP_ProcessCommand+0x95a>
    2492:	010ad483          	lhu	s1,16(s5)
    2496:	4581                	li	a1,0
    2498:	4522                	lw	a0,8(sp)
    249a:	73f010ef          	jal	ra,43d8 <SWD_Transfer>
    249e:	01351e63          	bne	a0,s3,24ba <DAP_ProcessCommand+0x954>
    24a2:	520481e3          	beqz	s1,31c4 <DAP_ProcessCommand+0x165e>
    24a6:	86818793          	addi	a5,gp,-1944 # 20000078 <DAP_TransferAbort>
    24aa:	0007c783          	lbu	a5,0(a5)
    24ae:	0ff7f793          	andi	a5,a5,255
    24b2:	14fd                	addi	s1,s1,-1
    24b4:	d3ed                	beqz	a5,2496 <DAP_ProcessCommand+0x930>
    24b6:	50f0006f          	j	31c4 <DAP_ProcessCommand+0x165e>
    24ba:	4785                	li	a5,1
    24bc:	50f514e3          	bne	a0,a5,31c4 <DAP_ProcessCommand+0x165e>
    24c0:	4d85                	li	s11,1
    24c2:	a025                	j	24ea <DAP_ProcessCommand+0x984>
    24c4:	51b515e3          	bne	a0,s11,31ce <DAP_ProcessCommand+0x1668>
    24c8:	014aa783          	lw	a5,20(s5)
    24cc:	5712                	lw	a4,36(sp)
    24ce:	8ff9                	and	a5,a5,a4
    24d0:	26fc0d63          	beq	s8,a5,274a <DAP_ProcessCommand+0xbe4>
    24d4:	4e0a03e3          	beqz	s4,31ba <DAP_ProcessCommand+0x1654>
    24d8:	86818793          	addi	a5,gp,-1944 # 20000078 <DAP_TransferAbort>
    24dc:	0007c783          	lbu	a5,0(a5)
    24e0:	0ff7f793          	andi	a5,a5,255
    24e4:	1a7d                	addi	s4,s4,-1
    24e6:	4c079ae3          	bnez	a5,31ba <DAP_ProcessCommand+0x1654>
    24ea:	010ad483          	lhu	s1,16(s5)
    24ee:	104c                	addi	a1,sp,36
    24f0:	4522                	lw	a0,8(sp)
    24f2:	6e7010ef          	jal	ra,43d8 <SWD_Transfer>
    24f6:	fd3517e3          	bne	a0,s3,24c4 <DAP_ProcessCommand+0x95e>
    24fa:	4a0486e3          	beqz	s1,31a6 <DAP_ProcessCommand+0x1640>
    24fe:	86818793          	addi	a5,gp,-1944 # 20000078 <DAP_TransferAbort>
    2502:	0007c783          	lbu	a5,0(a5)
    2506:	0ff7f793          	andi	a5,a5,255
    250a:	14fd                	addi	s1,s1,-1
    250c:	d3ed                	beqz	a5,24ee <DAP_ProcessCommand+0x988>
    250e:	4789                	li	a5,2
    2510:	c83e                	sw	a5,16(sp)
    2512:	4990006f          	j	31aa <DAP_ProcessCommand+0x1644>
    2516:	010ada03          	lhu	s4,16(s5)
    251a:	0014f793          	andi	a5,s1,1
    251e:	c7bd                	beqz	a5,258c <DAP_ProcessCommand+0xa26>
    2520:	000b0563          	beqz	s6,252a <DAP_ProcessCommand+0x9c4>
    2524:	4a52                	lw	s4,20(sp)
    2526:	cc02                	sw	zero,24(sp)
    2528:	a239                	j	2636 <DAP_ProcessCommand+0xad0>
    252a:	4581                	li	a1,0
    252c:	4522                	lw	a0,8(sp)
    252e:	6ab010ef          	jal	ra,43d8 <SWD_Transfer>
    2532:	01351e63          	bne	a0,s3,254e <DAP_ProcessCommand+0x9e8>
    2536:	3a0a09e3          	beqz	s4,30e8 <DAP_ProcessCommand+0x1582>
    253a:	86818793          	addi	a5,gp,-1944 # 20000078 <DAP_TransferAbort>
    253e:	0007c783          	lbu	a5,0(a5)
    2542:	0ff7f793          	andi	a5,a5,255
    2546:	1a7d                	addi	s4,s4,-1
    2548:	d3ed                	beqz	a5,252a <DAP_ProcessCommand+0x9c4>
    254a:	47b0006f          	j	31c4 <DAP_ProcessCommand+0x165e>
    254e:	4785                	li	a5,1
    2550:	46f51ae3          	bne	a0,a5,31c4 <DAP_ProcessCommand+0x165e>
    2554:	04e2                	slli	s1,s1,0x18
    2556:	84e1                	srai	s1,s1,0x18
    2558:	0004c663          	bltz	s1,2564 <DAP_ProcessCommand+0x9fe>
    255c:	cc5a                	sw	s6,24(sp)
    255e:	8b2a                	mv	s6,a0
    2560:	4a52                	lw	s4,20(sp)
    2562:	a8d1                	j	2636 <DAP_ProcessCommand+0xad0>
    2564:	008aa783          	lw	a5,8(s5)
    2568:	00fd0023          	sb	a5,0(s10)
    256c:	0087d713          	srli	a4,a5,0x8
    2570:	00ed00a3          	sb	a4,1(s10)
    2574:	0107d713          	srli	a4,a5,0x10
    2578:	00ed0123          	sb	a4,2(s10)
    257c:	83e1                	srli	a5,a5,0x18
    257e:	00fd01a3          	sb	a5,3(s10)
    2582:	cc5a                	sw	s6,24(sp)
    2584:	8b2a                	mv	s6,a0
    2586:	0d11                	addi	s10,s10,4
    2588:	4a52                	lw	s4,20(sp)
    258a:	a075                	j	2636 <DAP_ProcessCommand+0xad0>
    258c:	104c                	addi	a1,sp,36
    258e:	4522                	lw	a0,8(sp)
    2590:	649010ef          	jal	ra,43d8 <SWD_Transfer>
    2594:	01351e63          	bne	a0,s3,25b0 <DAP_ProcessCommand+0xa4a>
    2598:	420a06e3          	beqz	s4,31c4 <DAP_ProcessCommand+0x165e>
    259c:	86818793          	addi	a5,gp,-1944 # 20000078 <DAP_TransferAbort>
    25a0:	0007c783          	lbu	a5,0(a5)
    25a4:	0ff7f793          	andi	a5,a5,255
    25a8:	1a7d                	addi	s4,s4,-1
    25aa:	d3ed                	beqz	a5,258c <DAP_ProcessCommand+0xa26>
    25ac:	4190006f          	j	31c4 <DAP_ProcessCommand+0x165e>
    25b0:	4785                	li	a5,1
    25b2:	40f519e3          	bne	a0,a5,31c4 <DAP_ProcessCommand+0x165e>
    25b6:	04e2                	slli	s1,s1,0x18
    25b8:	84e1                	srai	s1,s1,0x18
    25ba:	0204c463          	bltz	s1,25e2 <DAP_ProcessCommand+0xa7c>
    25be:	5792                	lw	a5,36(sp)
    25c0:	00fd0023          	sb	a5,0(s10)
    25c4:	0087d713          	srli	a4,a5,0x8
    25c8:	00ed00a3          	sb	a4,1(s10)
    25cc:	0107d713          	srli	a4,a5,0x10
    25d0:	00ed0123          	sb	a4,2(s10)
    25d4:	83e1                	srli	a5,a5,0x18
    25d6:	00fd01a3          	sb	a5,3(s10)
    25da:	0d11                	addi	s10,s10,4
    25dc:	4a52                	lw	s4,20(sp)
    25de:	cc02                	sw	zero,24(sp)
    25e0:	a899                	j	2636 <DAP_ProcessCommand+0xad0>
    25e2:	008aa783          	lw	a5,8(s5)
    25e6:	00fd0023          	sb	a5,0(s10)
    25ea:	0087d713          	srli	a4,a5,0x8
    25ee:	00ed00a3          	sb	a4,1(s10)
    25f2:	0107d713          	srli	a4,a5,0x10
    25f6:	00ed0123          	sb	a4,2(s10)
    25fa:	83e1                	srli	a5,a5,0x18
    25fc:	00fd01a3          	sb	a5,3(s10)
    2600:	0d11                	addi	s10,s10,4
    2602:	bf75                	j	25be <DAP_ProcessCommand+0xa58>
    2604:	080b1c63          	bnez	s6,269c <DAP_ProcessCommand+0xb36>
    2608:	002a4783          	lbu	a5,2(s4)
    260c:	07a2                	slli	a5,a5,0x8
    260e:	003a4703          	lbu	a4,3(s4)
    2612:	0742                	slli	a4,a4,0x10
    2614:	8fd9                	or	a5,a5,a4
    2616:	001a4703          	lbu	a4,1(s4)
    261a:	8fd9                	or	a5,a5,a4
    261c:	004a4703          	lbu	a4,4(s4)
    2620:	0762                	slli	a4,a4,0x18
    2622:	8fd9                	or	a5,a5,a4
    2624:	d23e                	sw	a5,36(sp)
    2626:	0a15                	addi	s4,s4,5
    2628:	0204f713          	andi	a4,s1,32
    262c:	cf5d                	beqz	a4,26ea <DAP_ProcessCommand+0xb84>
    262e:	00faaa23          	sw	a5,20(s5)
    2632:	4b01                	li	s6,0
    2634:	4505                	li	a0,1
    2636:	47b2                	lw	a5,12(sp)
    2638:	0785                	addi	a5,a5,1
    263a:	c63e                	sw	a5,12(sp)
    263c:	86818793          	addi	a5,gp,-1944 # 20000078 <DAP_TransferAbort>
    2640:	0007c783          	lbu	a5,0(a5)
    2644:	0ff7f793          	andi	a5,a5,255
    2648:	12079363          	bnez	a5,276e <DAP_ProcessCommand+0xc08>
    264c:	1bfd                	addi	s7,s7,-1
    264e:	120b8263          	beqz	s7,2772 <DAP_ProcessCommand+0xc0c>
    2652:	001a0793          	addi	a5,s4,1
    2656:	ca3e                	sw	a5,20(sp)
    2658:	000a4483          	lbu	s1,0(s4)
    265c:	c426                	sw	s1,8(sp)
    265e:	0024f793          	andi	a5,s1,2
    2662:	d3cd                	beqz	a5,2604 <DAP_ProcessCommand+0xa9e>
    2664:	de0b0ce3          	beqz	s6,245c <DAP_ProcessCommand+0x8f6>
    2668:	010adc03          	lhu	s8,16(s5)
    266c:	0114f793          	andi	a5,s1,17
    2670:	4705                	li	a4,1
    2672:	d6e782e3          	beq	a5,a4,23d6 <DAP_ProcessCommand+0x870>
    2676:	104c                	addi	a1,sp,36
    2678:	4539                	li	a0,14
    267a:	55f010ef          	jal	ra,43d8 <SWD_Transfer>
    267e:	d7351ee3          	bne	a0,s3,23fa <DAP_ProcessCommand+0x894>
    2682:	260c0ae3          	beqz	s8,30f6 <DAP_ProcessCommand+0x1590>
    2686:	86818793          	addi	a5,gp,-1944 # 20000078 <DAP_TransferAbort>
    268a:	0007c783          	lbu	a5,0(a5)
    268e:	0ff7f793          	andi	a5,a5,255
    2692:	1c7d                	addi	s8,s8,-1
    2694:	d3ed                	beqz	a5,2676 <DAP_ProcessCommand+0xb10>
    2696:	4b01                	li	s6,0
    2698:	2610006f          	j	30f8 <DAP_ProcessCommand+0x1592>
    269c:	010adc03          	lhu	s8,16(s5)
    26a0:	104c                	addi	a1,sp,36
    26a2:	4539                	li	a0,14
    26a4:	535010ef          	jal	ra,43d8 <SWD_Transfer>
    26a8:	01351e63          	bne	a0,s3,26c4 <DAP_ProcessCommand+0xb5e>
    26ac:	300c0ce3          	beqz	s8,31c4 <DAP_ProcessCommand+0x165e>
    26b0:	86818793          	addi	a5,gp,-1944 # 20000078 <DAP_TransferAbort>
    26b4:	0007c783          	lbu	a5,0(a5)
    26b8:	0ff7f793          	andi	a5,a5,255
    26bc:	1c7d                	addi	s8,s8,-1
    26be:	d3ed                	beqz	a5,26a0 <DAP_ProcessCommand+0xb3a>
    26c0:	3050006f          	j	31c4 <DAP_ProcessCommand+0x165e>
    26c4:	4785                	li	a5,1
    26c6:	2ef51fe3          	bne	a0,a5,31c4 <DAP_ProcessCommand+0x165e>
    26ca:	5792                	lw	a5,36(sp)
    26cc:	00fd0023          	sb	a5,0(s10)
    26d0:	0087d713          	srli	a4,a5,0x8
    26d4:	00ed00a3          	sb	a4,1(s10)
    26d8:	0107d713          	srli	a4,a5,0x10
    26dc:	00ed0123          	sb	a4,2(s10)
    26e0:	83e1                	srli	a5,a5,0x18
    26e2:	00fd01a3          	sb	a5,3(s10)
    26e6:	0d11                	addi	s10,s10,4
    26e8:	b705                	j	2608 <DAP_ProcessCommand+0xaa2>
    26ea:	010adb03          	lhu	s6,16(s5)
    26ee:	104c                	addi	a1,sp,36
    26f0:	4522                	lw	a0,8(sp)
    26f2:	4e7010ef          	jal	ra,43d8 <SWD_Transfer>
    26f6:	03351063          	bne	a0,s3,2716 <DAP_ProcessCommand+0xbb0>
    26fa:	1e0b09e3          	beqz	s6,30ec <DAP_ProcessCommand+0x1586>
    26fe:	86818793          	addi	a5,gp,-1944 # 20000078 <DAP_TransferAbort>
    2702:	0007c783          	lbu	a5,0(a5)
    2706:	0ff7f793          	andi	a5,a5,255
    270a:	1b7d                	addi	s6,s6,-1
    270c:	d3ed                	beqz	a5,26ee <DAP_ProcessCommand+0xb88>
    270e:	ca52                	sw	s4,20(sp)
    2710:	4b01                	li	s6,0
    2712:	2b30006f          	j	31c4 <DAP_ProcessCommand+0x165e>
    2716:	4785                	li	a5,1
    2718:	1cf51ce3          	bne	a0,a5,30f0 <DAP_ProcessCommand+0x158a>
    271c:	04e2                	slli	s1,s1,0x18
    271e:	84e1                	srai	s1,s1,0x18
    2720:	cc2a                	sw	a0,24(sp)
    2722:	4b01                	li	s6,0
    2724:	f004d9e3          	bgez	s1,2636 <DAP_ProcessCommand+0xad0>
    2728:	008aa783          	lw	a5,8(s5)
    272c:	00fd0023          	sb	a5,0(s10)
    2730:	0087d713          	srli	a4,a5,0x8
    2734:	00ed00a3          	sb	a4,1(s10)
    2738:	0107d713          	srli	a4,a5,0x10
    273c:	00ed0123          	sb	a4,2(s10)
    2740:	83e1                	srli	a5,a5,0x18
    2742:	00fd01a3          	sb	a5,3(s10)
    2746:	0d11                	addi	s10,s10,4
    2748:	b5fd                	j	2636 <DAP_ProcessCommand+0xad0>
    274a:	4a52                	lw	s4,20(sp)
    274c:	cc02                	sw	zero,24(sp)
    274e:	b5e5                	j	2636 <DAP_ProcessCommand+0xad0>
    2750:	0a15                	addi	s4,s4,5
    2752:	a011                	j	2756 <DAP_ProcessCommand+0xbf0>
    2754:	0a15                	addi	s4,s4,5
    2756:	1bfd                	addi	s7,s7,-1
    2758:	000b8d63          	beqz	s7,2772 <DAP_ProcessCommand+0xc0c>
    275c:	000a4783          	lbu	a5,0(s4)
    2760:	0027f713          	andi	a4,a5,2
    2764:	db65                	beqz	a4,2754 <DAP_ProcessCommand+0xbee>
    2766:	8bc1                	andi	a5,a5,16
    2768:	f7e5                	bnez	a5,2750 <DAP_ProcessCommand+0xbea>
    276a:	0a05                	addi	s4,s4,1
    276c:	b7ed                	j	2756 <DAP_ProcessCommand+0xbf0>
    276e:	fe0b97e3          	bnez	s7,275c <DAP_ProcessCommand+0xbf6>
    2772:	4785                	li	a5,1
    2774:	02f50163          	beq	a0,a5,2796 <DAP_ProcessCommand+0xc30>
    2778:	47b2                	lw	a5,12(sp)
    277a:	00f400a3          	sb	a5,1(s0)
    277e:	00a40123          	sb	a0,2(s0)
    2782:	47f2                	lw	a5,28(sp)
    2784:	40fa0533          	sub	a0,s4,a5
    2788:	0542                	slli	a0,a0,0x10
    278a:	419d0d33          	sub	s10,s10,s9
    278e:	01a56533          	or	a0,a0,s10
    2792:	f14ff06f          	j	1ea6 <DAP_ProcessCommand+0x340>
    2796:	040b0a63          	beqz	s6,27ea <DAP_ProcessCommand+0xc84>
    279a:	200027b7          	lui	a5,0x20002
    279e:	ce47d483          	lhu	s1,-796(a5) # 20001ce4 <DAP_Data+0x10>
    27a2:	4909                	li	s2,2
    27a4:	104c                	addi	a1,sp,36
    27a6:	4539                	li	a0,14
    27a8:	431010ef          	jal	ra,43d8 <SWD_Transfer>
    27ac:	01251c63          	bne	a0,s2,27c4 <DAP_ProcessCommand+0xc5e>
    27b0:	d4e1                	beqz	s1,2778 <DAP_ProcessCommand+0xc12>
    27b2:	86818793          	addi	a5,gp,-1944 # 20000078 <DAP_TransferAbort>
    27b6:	0007c783          	lbu	a5,0(a5)
    27ba:	0ff7f793          	andi	a5,a5,255
    27be:	14fd                	addi	s1,s1,-1
    27c0:	d3f5                	beqz	a5,27a4 <DAP_ProcessCommand+0xc3e>
    27c2:	bf5d                	j	2778 <DAP_ProcessCommand+0xc12>
    27c4:	4785                	li	a5,1
    27c6:	faf519e3          	bne	a0,a5,2778 <DAP_ProcessCommand+0xc12>
    27ca:	5792                	lw	a5,36(sp)
    27cc:	00fd0023          	sb	a5,0(s10)
    27d0:	0087d713          	srli	a4,a5,0x8
    27d4:	00ed00a3          	sb	a4,1(s10)
    27d8:	0107d713          	srli	a4,a5,0x10
    27dc:	00ed0123          	sb	a4,2(s10)
    27e0:	83e1                	srli	a5,a5,0x18
    27e2:	00fd01a3          	sb	a5,3(s10)
    27e6:	0d11                	addi	s10,s10,4
    27e8:	bf41                	j	2778 <DAP_ProcessCommand+0xc12>
    27ea:	47e2                	lw	a5,24(sp)
    27ec:	d7d1                	beqz	a5,2778 <DAP_ProcessCommand+0xc12>
    27ee:	200027b7          	lui	a5,0x20002
    27f2:	ce47d483          	lhu	s1,-796(a5) # 20001ce4 <DAP_Data+0x10>
    27f6:	4909                	li	s2,2
    27f8:	4581                	li	a1,0
    27fa:	4539                	li	a0,14
    27fc:	3dd010ef          	jal	ra,43d8 <SWD_Transfer>
    2800:	f7251ce3          	bne	a0,s2,2778 <DAP_ProcessCommand+0xc12>
    2804:	d8b5                	beqz	s1,2778 <DAP_ProcessCommand+0xc12>
    2806:	86818793          	addi	a5,gp,-1944 # 20000078 <DAP_TransferAbort>
    280a:	0007c783          	lbu	a5,0(a5)
    280e:	0ff7f793          	andi	a5,a5,255
    2812:	14fd                	addi	s1,s1,-1
    2814:	d3f5                	beqz	a5,27f8 <DAP_ProcessCommand+0xc92>
    2816:	b78d                	j	2778 <DAP_ProcessCommand+0xc12>
    2818:	c65e                	sw	s7,12(sp)
    281a:	855e                	mv	a0,s7
    281c:	bfb1                	j	2778 <DAP_ProcessCommand+0xc12>
    281e:	00358d93          	addi	s11,a1,3
    2822:	86018423          	sb	zero,-1944(gp) # 20000078 <DAP_TransferAbort>
    2826:	00154703          	lbu	a4,1(a0)
    282a:	200027b7          	lui	a5,0x20002
    282e:	cd478793          	addi	a5,a5,-812 # 20001cd4 <DAP_Data>
    2832:	00e78da3          	sb	a4,27(a5)
    2836:	01a7c783          	lbu	a5,26(a5)
    283a:	40f77f63          	bgeu	a4,a5,2c58 <DAP_ProcessCommand+0x10f2>
    283e:	00350493          	addi	s1,a0,3
    2842:	00254b83          	lbu	s7,2(a0)
    2846:	400b8e63          	beqz	s7,2c62 <DAP_ProcessCommand+0x10fc>
    284a:	c602                	sw	zero,12(sp)
    284c:	ca02                	sw	zero,20(sp)
    284e:	4a01                	li	s4,0
    2850:	20002d37          	lui	s10,0x20002
    2854:	cd4d0d13          	addi	s10,s10,-812 # 20001cd4 <DAP_Data>
    2858:	4989                	li	s3,2
    285a:	aacd                	j	2a4c <DAP_ProcessCommand+0xee6>
    285c:	47a9                	li	a5,10
    285e:	4752                	lw	a4,20(sp)
    2860:	02f71863          	bne	a4,a5,2890 <DAP_ProcessCommand+0xd2a>
    2864:	104c                	addi	a1,sp,36
    2866:	4539                	li	a0,14
    2868:	2be010ef          	jal	ra,3b26 <JTAG_Transfer>
    286c:	872a                	mv	a4,a0
    286e:	03351563          	bne	a0,s3,2898 <DAP_ProcessCommand+0xd32>
    2872:	120a83e3          	beqz	s5,3198 <DAP_ProcessCommand+0x1632>
    2876:	86818793          	addi	a5,gp,-1944 # 20000078 <DAP_TransferAbort>
    287a:	0007c783          	lbu	a5,0(a5)
    287e:	0ff7f793          	andi	a5,a5,255
    2882:	1afd                	addi	s5,s5,-1
    2884:	d3e5                	beqz	a5,2864 <DAP_ProcessCommand+0xcfe>
    2886:	47a9                	li	a5,10
    2888:	ca3e                	sw	a5,20(sp)
    288a:	4a81                	li	s5,0
    288c:	1110006f          	j	319c <DAP_ProcessCommand+0x1636>
    2890:	4529                	li	a0,10
    2892:	6b5000ef          	jal	ra,3746 <JTAG_IR>
    2896:	b7f9                	j	2864 <DAP_ProcessCommand+0xcfe>
    2898:	47a9                	li	a5,10
    289a:	ca3e                	sw	a5,20(sp)
    289c:	4a01                	li	s4,0
    289e:	4785                	li	a5,1
    28a0:	04f71ee3          	bne	a4,a5,30fc <DAP_ProcessCommand+0x1596>
    28a4:	5792                	lw	a5,36(sp)
    28a6:	00fd8023          	sb	a5,0(s11) # 80000 <_data_lma+0x7adf0>
    28aa:	0087d713          	srli	a4,a5,0x8
    28ae:	00ed80a3          	sb	a4,1(s11)
    28b2:	0107d713          	srli	a4,a5,0x10
    28b6:	00ed8123          	sb	a4,2(s11)
    28ba:	004d8713          	addi	a4,s11,4
    28be:	83e1                	srli	a5,a5,0x18
    28c0:	00fd81a3          	sb	a5,3(s11)
    28c4:	060a04e3          	beqz	s4,312c <DAP_ProcessCommand+0x15c6>
    28c8:	018b1793          	slli	a5,s6,0x18
    28cc:	87e1                	srai	a5,a5,0x18
    28ce:	0007c963          	bltz	a5,28e0 <DAP_ProcessCommand+0xd7a>
    28d2:	8dba                	mv	s11,a4
    28d4:	010b7b13          	andi	s6,s6,16
    28d8:	060b10e3          	bnez	s6,3138 <DAP_ProcessCommand+0x15d2>
    28dc:	44e2                	lw	s1,24(sp)
    28de:	aa89                	j	2a30 <DAP_ProcessCommand+0xeca>
    28e0:	008d2783          	lw	a5,8(s10)
    28e4:	00fd8223          	sb	a5,4(s11)
    28e8:	0087d713          	srli	a4,a5,0x8
    28ec:	00ed82a3          	sb	a4,5(s11)
    28f0:	0107d713          	srli	a4,a5,0x10
    28f4:	00ed8323          	sb	a4,6(s11)
    28f8:	83e1                	srli	a5,a5,0x18
    28fa:	00fd83a3          	sb	a5,7(s11)
    28fe:	0da1                	addi	s11,s11,8
    2900:	bfd1                	j	28d4 <DAP_ProcessCommand+0xd6e>
    2902:	8562                	mv	a0,s8
    2904:	643000ef          	jal	ra,3746 <JTAG_IR>
    2908:	0630006f          	j	316a <DAP_ProcessCommand+0x1604>
    290c:	4785                	li	a5,1
    290e:	02f50663          	beq	a0,a5,293a <DAP_ProcessCommand+0xdd4>
    2912:	a09d                	j	2978 <DAP_ProcessCommand+0xe12>
    2914:	4785                	li	a5,1
    2916:	0af51ee3          	bne	a0,a5,31d2 <DAP_ProcessCommand+0x166c>
    291a:	014d2783          	lw	a5,20(s10)
    291e:	5712                	lw	a4,36(sp)
    2920:	8ff9                	and	a5,a5,a4
    2922:	24fb0963          	beq	s6,a5,2b74 <DAP_ProcessCommand+0x100e>
    2926:	060a8163          	beqz	s5,2988 <DAP_ProcessCommand+0xe22>
    292a:	86818793          	addi	a5,gp,-1944 # 20000078 <DAP_TransferAbort>
    292e:	0007c783          	lbu	a5,0(a5)
    2932:	0ff7f793          	andi	a5,a5,255
    2936:	1afd                	addi	s5,s5,-1
    2938:	e7a9                	bnez	a5,2982 <DAP_ProcessCommand+0xe1c>
    293a:	010d5483          	lhu	s1,16(s10)
    293e:	104c                	addi	a1,sp,36
    2940:	4522                	lw	a0,8(sp)
    2942:	1e4010ef          	jal	ra,3b26 <JTAG_Transfer>
    2946:	872a                	mv	a4,a0
    2948:	fd3516e3          	bne	a0,s3,2914 <DAP_ProcessCommand+0xdae>
    294c:	c889                	beqz	s1,295e <DAP_ProcessCommand+0xdf8>
    294e:	86818793          	addi	a5,gp,-1944 # 20000078 <DAP_TransferAbort>
    2952:	0007c783          	lbu	a5,0(a5)
    2956:	0ff7f793          	andi	a5,a5,255
    295a:	14fd                	addi	s1,s1,-1
    295c:	d3ed                	beqz	a5,293e <DAP_ProcessCommand+0xdd8>
    295e:	200027b7          	lui	a5,0x20002
    2962:	ce87a783          	lw	a5,-792(a5) # 20001ce8 <DAP_Data+0x14>
    2966:	5692                	lw	a3,36(sp)
    2968:	8ff5                	and	a5,a5,a3
    296a:	01678763          	beq	a5,s6,2978 <DAP_ProcessCommand+0xe12>
    296e:	47c2                	lw	a5,16(sp)
    2970:	0107e713          	ori	a4,a5,16
    2974:	0ff77713          	andi	a4,a4,255
    2978:	ca62                	sw	s8,20(sp)
    297a:	44e2                	lw	s1,24(sp)
    297c:	200b9563          	bnez	s7,2b86 <DAP_ProcessCommand+0x1020>
    2980:	acb9                	j	2bde <DAP_ProcessCommand+0x1078>
    2982:	4785                	li	a5,1
    2984:	c83e                	sw	a5,16(sp)
    2986:	b7e5                	j	296e <DAP_ProcessCommand+0xe08>
    2988:	4785                	li	a5,1
    298a:	c83e                	sw	a5,16(sp)
    298c:	b7cd                	j	296e <DAP_ProcessCommand+0xe08>
    298e:	47d2                	lw	a5,20(sp)
    2990:	03879863          	bne	a5,s8,29c0 <DAP_ProcessCommand+0xe5a>
    2994:	010d5483          	lhu	s1,16(s10)
    2998:	4581                	li	a1,0
    299a:	4522                	lw	a0,8(sp)
    299c:	18a010ef          	jal	ra,3b26 <JTAG_Transfer>
    29a0:	8a2a                	mv	s4,a0
    29a2:	03351363          	bne	a0,s3,29c8 <DAP_ProcessCommand+0xe62>
    29a6:	74048e63          	beqz	s1,3102 <DAP_ProcessCommand+0x159c>
    29aa:	86818793          	addi	a5,gp,-1944 # 20000078 <DAP_TransferAbort>
    29ae:	0007c783          	lbu	a5,0(a5)
    29b2:	0ff7f793          	andi	a5,a5,255
    29b6:	14fd                	addi	s1,s1,-1
    29b8:	d3e5                	beqz	a5,2998 <DAP_ProcessCommand+0xe32>
    29ba:	872a                	mv	a4,a0
    29bc:	4a01                	li	s4,0
    29be:	bf6d                	j	2978 <DAP_ProcessCommand+0xe12>
    29c0:	8562                	mv	a0,s8
    29c2:	585000ef          	jal	ra,3746 <JTAG_IR>
    29c6:	b7f9                	j	2994 <DAP_ProcessCommand+0xe2e>
    29c8:	4785                	li	a5,1
    29ca:	74f51063          	bne	a0,a5,310a <DAP_ProcessCommand+0x15a4>
    29ce:	0b62                	slli	s6,s6,0x18
    29d0:	418b5b13          	srai	s6,s6,0x18
    29d4:	ca62                	sw	s8,20(sp)
    29d6:	46e2                	lw	a3,24(sp)
    29d8:	84b6                	mv	s1,a3
    29da:	040b5b63          	bgez	s6,2a30 <DAP_ProcessCommand+0xeca>
    29de:	008d2783          	lw	a5,8(s10)
    29e2:	00fd8023          	sb	a5,0(s11)
    29e6:	0087d713          	srli	a4,a5,0x8
    29ea:	00ed80a3          	sb	a4,1(s11)
    29ee:	0107d713          	srli	a4,a5,0x10
    29f2:	00ed8123          	sb	a4,2(s11)
    29f6:	83e1                	srli	a5,a5,0x18
    29f8:	00fd81a3          	sb	a5,3(s11)
    29fc:	0d91                	addi	s11,s11,4
    29fe:	a80d                	j	2a30 <DAP_ProcessCommand+0xeca>
    2a00:	0a0a1063          	bnez	s4,2aa0 <DAP_ProcessCommand+0xf3a>
    2a04:	0024c783          	lbu	a5,2(s1)
    2a08:	07a2                	slli	a5,a5,0x8
    2a0a:	0034c703          	lbu	a4,3(s1)
    2a0e:	0742                	slli	a4,a4,0x10
    2a10:	8fd9                	or	a5,a5,a4
    2a12:	0014c703          	lbu	a4,1(s1)
    2a16:	8fd9                	or	a5,a5,a4
    2a18:	0044c703          	lbu	a4,4(s1)
    2a1c:	0762                	slli	a4,a4,0x18
    2a1e:	8fd9                	or	a5,a5,a4
    2a20:	d23e                	sw	a5,36(sp)
    2a22:	0495                	addi	s1,s1,5
    2a24:	020b7713          	andi	a4,s6,32
    2a28:	cf71                	beqz	a4,2b04 <DAP_ProcessCommand+0xf9e>
    2a2a:	00fd2a23          	sw	a5,20(s10)
    2a2e:	4a01                	li	s4,0
    2a30:	47b2                	lw	a5,12(sp)
    2a32:	0785                	addi	a5,a5,1
    2a34:	c63e                	sw	a5,12(sp)
    2a36:	86818793          	addi	a5,gp,-1944 # 20000078 <DAP_TransferAbort>
    2a3a:	0007c783          	lbu	a5,0(a5)
    2a3e:	0ff7f793          	andi	a5,a5,255
    2a42:	14079b63          	bnez	a5,2b98 <DAP_ProcessCommand+0x1032>
    2a46:	1bfd                	addi	s7,s7,-1
    2a48:	140b8b63          	beqz	s7,2b9e <DAP_ProcessCommand+0x1038>
    2a4c:	00148793          	addi	a5,s1,1
    2a50:	cc3e                	sw	a5,24(sp)
    2a52:	0004cb03          	lbu	s6,0(s1)
    2a56:	c45a                	sw	s6,8(sp)
    2a58:	001b7c13          	andi	s8,s6,1
    2a5c:	0c29                	addi	s8,s8,10
    2a5e:	002b7793          	andi	a5,s6,2
    2a62:	dfd9                	beqz	a5,2a00 <DAP_ProcessCommand+0xe9a>
    2a64:	6c0a0563          	beqz	s4,312e <DAP_ProcessCommand+0x15c8>
    2a68:	010d5a83          	lhu	s5,16(s10)
    2a6c:	47d2                	lw	a5,20(sp)
    2a6e:	df8797e3          	bne	a5,s8,285c <DAP_ProcessCommand+0xcf6>
    2a72:	010b7793          	andi	a5,s6,16
    2a76:	de0793e3          	bnez	a5,285c <DAP_ProcessCommand+0xcf6>
    2a7a:	104c                	addi	a1,sp,36
    2a7c:	4522                	lw	a0,8(sp)
    2a7e:	0a8010ef          	jal	ra,3b26 <JTAG_Transfer>
    2a82:	872a                	mv	a4,a0
    2a84:	e1351de3          	bne	a0,s3,289e <DAP_ProcessCommand+0xd38>
    2a88:	700a8663          	beqz	s5,3194 <DAP_ProcessCommand+0x162e>
    2a8c:	86818793          	addi	a5,gp,-1944 # 20000078 <DAP_TransferAbort>
    2a90:	0007c783          	lbu	a5,0(a5)
    2a94:	0ff7f793          	andi	a5,a5,255
    2a98:	1afd                	addi	s5,s5,-1
    2a9a:	d3e5                	beqz	a5,2a7a <DAP_ProcessCommand+0xf14>
    2a9c:	8ad2                	mv	s5,s4
    2a9e:	adfd                	j	319c <DAP_ProcessCommand+0x1636>
    2aa0:	47a9                	li	a5,10
    2aa2:	4752                	lw	a4,20(sp)
    2aa4:	02f71763          	bne	a4,a5,2ad2 <DAP_ProcessCommand+0xf6c>
    2aa8:	010d5a83          	lhu	s5,16(s10)
    2aac:	104c                	addi	a1,sp,36
    2aae:	4539                	li	a0,14
    2ab0:	076010ef          	jal	ra,3b26 <JTAG_Transfer>
    2ab4:	872a                	mv	a4,a0
    2ab6:	03351263          	bne	a0,s3,2ada <DAP_ProcessCommand+0xf74>
    2aba:	640a8c63          	beqz	s5,3112 <DAP_ProcessCommand+0x15ac>
    2abe:	86818793          	addi	a5,gp,-1944 # 20000078 <DAP_TransferAbort>
    2ac2:	0007c783          	lbu	a5,0(a5)
    2ac6:	0ff7f793          	andi	a5,a5,255
    2aca:	1afd                	addi	s5,s5,-1
    2acc:	d3e5                	beqz	a5,2aac <DAP_ProcessCommand+0xf46>
    2ace:	4c29                	li	s8,10
    2ad0:	b565                	j	2978 <DAP_ProcessCommand+0xe12>
    2ad2:	4529                	li	a0,10
    2ad4:	473000ef          	jal	ra,3746 <JTAG_IR>
    2ad8:	bfc1                	j	2aa8 <DAP_ProcessCommand+0xf42>
    2ada:	4785                	li	a5,1
    2adc:	62f51e63          	bne	a0,a5,3118 <DAP_ProcessCommand+0x15b2>
    2ae0:	5792                	lw	a5,36(sp)
    2ae2:	00fd8023          	sb	a5,0(s11)
    2ae6:	0087d713          	srli	a4,a5,0x8
    2aea:	00ed80a3          	sb	a4,1(s11)
    2aee:	0107d713          	srli	a4,a5,0x10
    2af2:	00ed8123          	sb	a4,2(s11)
    2af6:	83e1                	srli	a5,a5,0x18
    2af8:	00fd81a3          	sb	a5,3(s11)
    2afc:	0d91                	addi	s11,s11,4
    2afe:	47a9                	li	a5,10
    2b00:	ca3e                	sw	a5,20(sp)
    2b02:	b709                	j	2a04 <DAP_ProcessCommand+0xe9e>
    2b04:	47d2                	lw	a5,20(sp)
    2b06:	02fc1863          	bne	s8,a5,2b36 <DAP_ProcessCommand+0xfd0>
    2b0a:	010d5a03          	lhu	s4,16(s10)
    2b0e:	104c                	addi	a1,sp,36
    2b10:	4522                	lw	a0,8(sp)
    2b12:	014010ef          	jal	ra,3b26 <JTAG_Transfer>
    2b16:	872a                	mv	a4,a0
    2b18:	03351363          	bne	a0,s3,2b3e <DAP_ProcessCommand+0xfd8>
    2b1c:	600a0163          	beqz	s4,311e <DAP_ProcessCommand+0x15b8>
    2b20:	86818793          	addi	a5,gp,-1944 # 20000078 <DAP_TransferAbort>
    2b24:	0007c783          	lbu	a5,0(a5)
    2b28:	0ff7f793          	andi	a5,a5,255
    2b2c:	1a7d                	addi	s4,s4,-1
    2b2e:	d3e5                	beqz	a5,2b0e <DAP_ProcessCommand+0xfa8>
    2b30:	cc26                	sw	s1,24(sp)
    2b32:	4a01                	li	s4,0
    2b34:	b591                	j	2978 <DAP_ProcessCommand+0xe12>
    2b36:	8562                	mv	a0,s8
    2b38:	40f000ef          	jal	ra,3746 <JTAG_IR>
    2b3c:	b7f9                	j	2b0a <DAP_ProcessCommand+0xfa4>
    2b3e:	4785                	li	a5,1
    2b40:	5ef51263          	bne	a0,a5,3124 <DAP_ProcessCommand+0x15be>
    2b44:	0b62                	slli	s6,s6,0x18
    2b46:	418b5b13          	srai	s6,s6,0x18
    2b4a:	ca62                	sw	s8,20(sp)
    2b4c:	4a01                	li	s4,0
    2b4e:	ee0b51e3          	bgez	s6,2a30 <DAP_ProcessCommand+0xeca>
    2b52:	008d2783          	lw	a5,8(s10)
    2b56:	00fd8023          	sb	a5,0(s11)
    2b5a:	0087d713          	srli	a4,a5,0x8
    2b5e:	00ed80a3          	sb	a4,1(s11)
    2b62:	0107d713          	srli	a4,a5,0x10
    2b66:	00ed8123          	sb	a4,2(s11)
    2b6a:	83e1                	srli	a5,a5,0x18
    2b6c:	00fd81a3          	sb	a5,3(s11)
    2b70:	0d91                	addi	s11,s11,4
    2b72:	bd7d                	j	2a30 <DAP_ProcessCommand+0xeca>
    2b74:	ca62                	sw	s8,20(sp)
    2b76:	44e2                	lw	s1,24(sp)
    2b78:	bd65                	j	2a30 <DAP_ProcessCommand+0xeca>
    2b7a:	0495                	addi	s1,s1,5
    2b7c:	a011                	j	2b80 <DAP_ProcessCommand+0x101a>
    2b7e:	0495                	addi	s1,s1,5
    2b80:	1bfd                	addi	s7,s7,-1
    2b82:	040b8b63          	beqz	s7,2bd8 <DAP_ProcessCommand+0x1072>
    2b86:	0004c783          	lbu	a5,0(s1)
    2b8a:	0027f693          	andi	a3,a5,2
    2b8e:	dae5                	beqz	a3,2b7e <DAP_ProcessCommand+0x1018>
    2b90:	8bc1                	andi	a5,a5,16
    2b92:	f7e5                	bnez	a5,2b7a <DAP_ProcessCommand+0x1014>
    2b94:	0485                	addi	s1,s1,1
    2b96:	b7ed                	j	2b80 <DAP_ProcessCommand+0x101a>
    2b98:	4705                	li	a4,1
    2b9a:	fe0b96e3          	bnez	s7,2b86 <DAP_ProcessCommand+0x1020>
    2b9e:	47a9                	li	a5,10
    2ba0:	4752                	lw	a4,20(sp)
    2ba2:	04f71d63          	bne	a4,a5,2bfc <DAP_ProcessCommand+0x1096>
    2ba6:	080a0263          	beqz	s4,2c2a <DAP_ProcessCommand+0x10c4>
    2baa:	200027b7          	lui	a5,0x20002
    2bae:	ce47d903          	lhu	s2,-796(a5) # 20001ce4 <DAP_Data+0x10>
    2bb2:	4a09                	li	s4,2
    2bb4:	104c                	addi	a1,sp,36
    2bb6:	4539                	li	a0,14
    2bb8:	76f000ef          	jal	ra,3b26 <JTAG_Transfer>
    2bbc:	872a                	mv	a4,a0
    2bbe:	05451363          	bne	a0,s4,2c04 <DAP_ProcessCommand+0x109e>
    2bc2:	00090e63          	beqz	s2,2bde <DAP_ProcessCommand+0x1078>
    2bc6:	86818793          	addi	a5,gp,-1944 # 20000078 <DAP_TransferAbort>
    2bca:	0007c783          	lbu	a5,0(a5)
    2bce:	0ff7f793          	andi	a5,a5,255
    2bd2:	197d                	addi	s2,s2,-1
    2bd4:	d3e5                	beqz	a5,2bb4 <DAP_ProcessCommand+0x104e>
    2bd6:	a021                	j	2bde <DAP_ProcessCommand+0x1078>
    2bd8:	4785                	li	a5,1
    2bda:	fcf702e3          	beq	a4,a5,2b9e <DAP_ProcessCommand+0x1038>
    2bde:	47b2                	lw	a5,12(sp)
    2be0:	00f400a3          	sb	a5,1(s0)
    2be4:	00e40123          	sb	a4,2(s0)
    2be8:	47f2                	lw	a5,28(sp)
    2bea:	40f48533          	sub	a0,s1,a5
    2bee:	0542                	slli	a0,a0,0x10
    2bf0:	419d8cb3          	sub	s9,s11,s9
    2bf4:	01956533          	or	a0,a0,s9
    2bf8:	aaeff06f          	j	1ea6 <DAP_ProcessCommand+0x340>
    2bfc:	4529                	li	a0,10
    2bfe:	349000ef          	jal	ra,3746 <JTAG_IR>
    2c02:	b755                	j	2ba6 <DAP_ProcessCommand+0x1040>
    2c04:	4785                	li	a5,1
    2c06:	fcf51ce3          	bne	a0,a5,2bde <DAP_ProcessCommand+0x1078>
    2c0a:	5792                	lw	a5,36(sp)
    2c0c:	00fd8023          	sb	a5,0(s11)
    2c10:	0087d693          	srli	a3,a5,0x8
    2c14:	00dd80a3          	sb	a3,1(s11)
    2c18:	0107d693          	srli	a3,a5,0x10
    2c1c:	00dd8123          	sb	a3,2(s11)
    2c20:	83e1                	srli	a5,a5,0x18
    2c22:	00fd81a3          	sb	a5,3(s11)
    2c26:	0d91                	addi	s11,s11,4
    2c28:	bf5d                	j	2bde <DAP_ProcessCommand+0x1078>
    2c2a:	200027b7          	lui	a5,0x20002
    2c2e:	ce47d903          	lhu	s2,-796(a5) # 20001ce4 <DAP_Data+0x10>
    2c32:	4a09                	li	s4,2
    2c34:	4581                	li	a1,0
    2c36:	4539                	li	a0,14
    2c38:	6ef000ef          	jal	ra,3b26 <JTAG_Transfer>
    2c3c:	872a                	mv	a4,a0
    2c3e:	fb4510e3          	bne	a0,s4,2bde <DAP_ProcessCommand+0x1078>
    2c42:	f8090ee3          	beqz	s2,2bde <DAP_ProcessCommand+0x1078>
    2c46:	86818793          	addi	a5,gp,-1944 # 20000078 <DAP_TransferAbort>
    2c4a:	0007c783          	lbu	a5,0(a5)
    2c4e:	0ff7f793          	andi	a5,a5,255
    2c52:	197d                	addi	s2,s2,-1
    2c54:	d3e5                	beqz	a5,2c34 <DAP_ProcessCommand+0x10ce>
    2c56:	b761                	j	2bde <DAP_ProcessCommand+0x1078>
    2c58:	00250493          	addi	s1,a0,2
    2c5c:	4701                	li	a4,0
    2c5e:	c602                	sw	zero,12(sp)
    2c60:	bfbd                	j	2bde <DAP_ProcessCommand+0x1078>
    2c62:	875e                	mv	a4,s7
    2c64:	c65e                	sw	s7,12(sp)
    2c66:	bfa5                	j	2bde <DAP_ProcessCommand+0x1078>
    2c68:	0795                	addi	a5,a5,5
    2c6a:	a011                	j	2c6e <DAP_ProcessCommand+0x1108>
    2c6c:	0795                	addi	a5,a5,5
    2c6e:	16fd                	addi	a3,a3,-1
    2c70:	f2068363          	beqz	a3,2396 <DAP_ProcessCommand+0x830>
    2c74:	0007c703          	lbu	a4,0(a5)
    2c78:	00277613          	andi	a2,a4,2
    2c7c:	da65                	beqz	a2,2c6c <DAP_ProcessCommand+0x1106>
    2c7e:	8b41                	andi	a4,a4,16
    2c80:	f765                	bnez	a4,2c68 <DAP_ProcessCommand+0x1102>
    2c82:	0785                	addi	a5,a5,1
    2c84:	b7ed                	j	2c6e <DAP_ProcessCommand+0x1108>
    2c86:	200027b7          	lui	a5,0x20002
    2c8a:	cd47c783          	lbu	a5,-812(a5) # 20001cd4 <DAP_Data>
    2c8e:	4705                	li	a4,1
    2c90:	00e78d63          	beq	a5,a4,2caa <DAP_ProcessCommand+0x1144>
    2c94:	4709                	li	a4,2
    2c96:	18e78e63          	beq	a5,a4,2e32 <DAP_ProcessCommand+0x12cc>
    2c9a:	000580a3          	sb	zero,1(a1)
    2c9e:	00058123          	sb	zero,2(a1)
    2ca2:	000581a3          	sb	zero,3(a1)
    2ca6:	450d                	li	a0,3
    2ca8:	acf5                	j	2fa4 <DAP_ProcessCommand+0x143e>
    2caa:	00458493          	addi	s1,a1,4
    2cae:	86018423          	sb	zero,-1944(gp) # 20000078 <DAP_TransferAbort>
    2cb2:	00354c03          	lbu	s8,3(a0)
    2cb6:	0c22                	slli	s8,s8,0x8
    2cb8:	00254783          	lbu	a5,2(a0)
    2cbc:	00fc6c33          	or	s8,s8,a5
    2cc0:	160c0063          	beqz	s8,2e20 <DAP_ProcessCommand+0x12ba>
    2cc4:	00454783          	lbu	a5,4(a0)
    2cc8:	8a3e                	mv	s4,a5
    2cca:	0027f713          	andi	a4,a5,2
    2cce:	eb11                	bnez	a4,2ce2 <DAP_ProcessCommand+0x117c>
    2cd0:	00550d13          	addi	s10,a0,5
    2cd4:	4b81                	li	s7,0
    2cd6:	20002db7          	lui	s11,0x20002
    2cda:	cd4d8d93          	addi	s11,s11,-812 # 20001cd4 <DAP_Data>
    2cde:	4a89                	li	s5,2
    2ce0:	a865                	j	2d98 <DAP_ProcessCommand+0x1232>
    2ce2:	8b85                	andi	a5,a5,1
    2ce4:	cb9d                	beqz	a5,2d1a <DAP_ProcessCommand+0x11b4>
    2ce6:	200027b7          	lui	a5,0x20002
    2cea:	ce47db83          	lhu	s7,-796(a5) # 20001ce4 <DAP_Data+0x10>
    2cee:	4989                	li	s3,2
    2cf0:	4581                	li	a1,0
    2cf2:	8552                	mv	a0,s4
    2cf4:	6e4010ef          	jal	ra,43d8 <SWD_Transfer>
    2cf8:	01351e63          	bne	a0,s3,2d14 <DAP_ProcessCommand+0x11ae>
    2cfc:	0e0b8063          	beqz	s7,2ddc <DAP_ProcessCommand+0x1276>
    2d00:	86818793          	addi	a5,gp,-1944 # 20000078 <DAP_TransferAbort>
    2d04:	0007c783          	lbu	a5,0(a5)
    2d08:	0ff7f793          	andi	a5,a5,255
    2d0c:	1bfd                	addi	s7,s7,-1
    2d0e:	d3ed                	beqz	a5,2cf0 <DAP_ProcessCommand+0x118a>
    2d10:	4b81                	li	s7,0
    2d12:	a0e9                	j	2ddc <DAP_ProcessCommand+0x1276>
    2d14:	4785                	li	a5,1
    2d16:	10f51863          	bne	a0,a5,2e26 <DAP_ProcessCommand+0x12c0>
    2d1a:	1c7d                	addi	s8,s8,-1
    2d1c:	4b81                	li	s7,0
    2d1e:	20002d37          	lui	s10,0x20002
    2d22:	cd4d0d13          	addi	s10,s10,-812 # 20001cd4 <DAP_Data>
    2d26:	4a89                	li	s5,2
    2d28:	4d85                	li	s11,1
    2d2a:	a825                	j	2d62 <DAP_ProcessCommand+0x11fc>
    2d2c:	001a7793          	andi	a5,s4,1
    2d30:	cb9d                	beqz	a5,2d66 <DAP_ProcessCommand+0x1200>
    2d32:	4a39                	li	s4,14
    2d34:	a80d                	j	2d66 <DAP_ProcessCommand+0x1200>
    2d36:	0bb51363          	bne	a0,s11,2ddc <DAP_ProcessCommand+0x1276>
    2d3a:	5792                	lw	a5,36(sp)
    2d3c:	00f48023          	sb	a5,0(s1)
    2d40:	0087d713          	srli	a4,a5,0x8
    2d44:	00e480a3          	sb	a4,1(s1)
    2d48:	0107d713          	srli	a4,a5,0x10
    2d4c:	00e48123          	sb	a4,2(s1)
    2d50:	0491                	addi	s1,s1,4
    2d52:	83e1                	srli	a5,a5,0x18
    2d54:	fef48fa3          	sb	a5,-1(s1)
    2d58:	0b85                	addi	s7,s7,1
    2d5a:	1c7d                	addi	s8,s8,-1
    2d5c:	57fd                	li	a5,-1
    2d5e:	06fc0f63          	beq	s8,a5,2ddc <DAP_ProcessCommand+0x1276>
    2d62:	fc0c05e3          	beqz	s8,2d2c <DAP_ProcessCommand+0x11c6>
    2d66:	010d5983          	lhu	s3,16(s10)
    2d6a:	104c                	addi	a1,sp,36
    2d6c:	8552                	mv	a0,s4
    2d6e:	66a010ef          	jal	ra,43d8 <SWD_Transfer>
    2d72:	fd5512e3          	bne	a0,s5,2d36 <DAP_ProcessCommand+0x11d0>
    2d76:	06098363          	beqz	s3,2ddc <DAP_ProcessCommand+0x1276>
    2d7a:	86818793          	addi	a5,gp,-1944 # 20000078 <DAP_TransferAbort>
    2d7e:	0007c783          	lbu	a5,0(a5)
    2d82:	0ff7f793          	andi	a5,a5,255
    2d86:	19fd                	addi	s3,s3,-1
    2d88:	d3ed                	beqz	a5,2d6a <DAP_ProcessCommand+0x1204>
    2d8a:	a889                	j	2ddc <DAP_ProcessCommand+0x1276>
    2d8c:	4785                	li	a5,1
    2d8e:	04f51763          	bne	a0,a5,2ddc <DAP_ProcessCommand+0x1276>
    2d92:	0b85                	addi	s7,s7,1
    2d94:	057c0f63          	beq	s8,s7,2df2 <DAP_ProcessCommand+0x128c>
    2d98:	001d4783          	lbu	a5,1(s10)
    2d9c:	07a2                	slli	a5,a5,0x8
    2d9e:	002d4703          	lbu	a4,2(s10)
    2da2:	0742                	slli	a4,a4,0x10
    2da4:	8fd9                	or	a5,a5,a4
    2da6:	000d4703          	lbu	a4,0(s10)
    2daa:	8fd9                	or	a5,a5,a4
    2dac:	003d4703          	lbu	a4,3(s10)
    2db0:	0762                	slli	a4,a4,0x18
    2db2:	8fd9                	or	a5,a5,a4
    2db4:	d23e                	sw	a5,36(sp)
    2db6:	0d11                	addi	s10,s10,4
    2db8:	010dd983          	lhu	s3,16(s11)
    2dbc:	104c                	addi	a1,sp,36
    2dbe:	8552                	mv	a0,s4
    2dc0:	618010ef          	jal	ra,43d8 <SWD_Transfer>
    2dc4:	fd5514e3          	bne	a0,s5,2d8c <DAP_ProcessCommand+0x1226>
    2dc8:	00098a63          	beqz	s3,2ddc <DAP_ProcessCommand+0x1276>
    2dcc:	86818793          	addi	a5,gp,-1944 # 20000078 <DAP_TransferAbort>
    2dd0:	0007c783          	lbu	a5,0(a5)
    2dd4:	0ff7f793          	andi	a5,a5,255
    2dd8:	19fd                	addi	s3,s3,-1
    2dda:	d3ed                	beqz	a5,2dbc <DAP_ProcessCommand+0x1256>
    2ddc:	017400a3          	sb	s7,1(s0)
    2de0:	008bdb93          	srli	s7,s7,0x8
    2de4:	01740123          	sb	s7,2(s0)
    2de8:	00a401a3          	sb	a0,3(s0)
    2dec:	41948533          	sub	a0,s1,s9
    2df0:	aa55                	j	2fa4 <DAP_ProcessCommand+0x143e>
    2df2:	200027b7          	lui	a5,0x20002
    2df6:	ce47d983          	lhu	s3,-796(a5) # 20001ce4 <DAP_Data+0x10>
    2dfa:	4a09                	li	s4,2
    2dfc:	4581                	li	a1,0
    2dfe:	4539                	li	a0,14
    2e00:	5d8010ef          	jal	ra,43d8 <SWD_Transfer>
    2e04:	03451363          	bne	a0,s4,2e2a <DAP_ProcessCommand+0x12c4>
    2e08:	02098363          	beqz	s3,2e2e <DAP_ProcessCommand+0x12c8>
    2e0c:	86818793          	addi	a5,gp,-1944 # 20000078 <DAP_TransferAbort>
    2e10:	0007c783          	lbu	a5,0(a5)
    2e14:	0ff7f793          	andi	a5,a5,255
    2e18:	19fd                	addi	s3,s3,-1
    2e1a:	d3ed                	beqz	a5,2dfc <DAP_ProcessCommand+0x1296>
    2e1c:	8be2                	mv	s7,s8
    2e1e:	bf7d                	j	2ddc <DAP_ProcessCommand+0x1276>
    2e20:	8562                	mv	a0,s8
    2e22:	8be2                	mv	s7,s8
    2e24:	bf65                	j	2ddc <DAP_ProcessCommand+0x1276>
    2e26:	4b81                	li	s7,0
    2e28:	bf55                	j	2ddc <DAP_ProcessCommand+0x1276>
    2e2a:	8be2                	mv	s7,s8
    2e2c:	bf45                	j	2ddc <DAP_ProcessCommand+0x1276>
    2e2e:	8be2                	mv	s7,s8
    2e30:	b775                	j	2ddc <DAP_ProcessCommand+0x1276>
    2e32:	00458493          	addi	s1,a1,4
    2e36:	86018423          	sb	zero,-1944(gp) # 20000078 <DAP_TransferAbort>
    2e3a:	00154703          	lbu	a4,1(a0)
    2e3e:	200027b7          	lui	a5,0x20002
    2e42:	cd478793          	addi	a5,a5,-812 # 20001cd4 <DAP_Data>
    2e46:	00e78da3          	sb	a4,27(a5)
    2e4a:	01a7c783          	lbu	a5,26(a5)
    2e4e:	1af77463          	bgeu	a4,a5,2ff6 <DAP_ProcessCommand+0x1490>
    2e52:	00354d03          	lbu	s10,3(a0)
    2e56:	0d22                	slli	s10,s10,0x8
    2e58:	00254783          	lbu	a5,2(a0)
    2e5c:	00fd6d33          	or	s10,s10,a5
    2e60:	180d0e63          	beqz	s10,2ffc <DAP_ProcessCommand+0x1496>
    2e64:	00454983          	lbu	s3,4(a0)
    2e68:	8a4e                	mv	s4,s3
    2e6a:	0019f793          	andi	a5,s3,1
    2e6e:	07a9                	addi	a5,a5,10
    2e70:	c43e                	sw	a5,8(sp)
    2e72:	853e                	mv	a0,a5
    2e74:	0d3000ef          	jal	ra,3746 <JTAG_IR>
    2e78:	0029f993          	andi	s3,s3,2
    2e7c:	00099b63          	bnez	s3,2e92 <DAP_ProcessCommand+0x132c>
    2e80:	00590c13          	addi	s8,s2,5 # 2005 <DAP_ProcessCommand+0x49f>
    2e84:	4b01                	li	s6,0
    2e86:	20002db7          	lui	s11,0x20002
    2e8a:	cd4d8d93          	addi	s11,s11,-812 # 20001cd4 <DAP_Data>
    2e8e:	4a89                	li	s5,2
    2e90:	a875                	j	2f4c <DAP_ProcessCommand+0x13e6>
    2e92:	200027b7          	lui	a5,0x20002
    2e96:	ce47db03          	lhu	s6,-796(a5) # 20001ce4 <DAP_Data+0x10>
    2e9a:	4989                	li	s3,2
    2e9c:	4581                	li	a1,0
    2e9e:	8552                	mv	a0,s4
    2ea0:	487000ef          	jal	ra,3b26 <JTAG_Transfer>
    2ea4:	01351e63          	bne	a0,s3,2ec0 <DAP_ProcessCommand+0x135a>
    2ea8:	0e0b0463          	beqz	s6,2f90 <DAP_ProcessCommand+0x142a>
    2eac:	86818793          	addi	a5,gp,-1944 # 20000078 <DAP_TransferAbort>
    2eb0:	0007c783          	lbu	a5,0(a5)
    2eb4:	0ff7f793          	andi	a5,a5,255
    2eb8:	1b7d                	addi	s6,s6,-1
    2eba:	d3ed                	beqz	a5,2e9c <DAP_ProcessCommand+0x1336>
    2ebc:	4b01                	li	s6,0
    2ebe:	a8c9                	j	2f90 <DAP_ProcessCommand+0x142a>
    2ec0:	4785                	li	a5,1
    2ec2:	14f51063          	bne	a0,a5,3002 <DAP_ProcessCommand+0x149c>
    2ec6:	1d7d                	addi	s10,s10,-1
    2ec8:	4b01                	li	s6,0
    2eca:	20002c37          	lui	s8,0x20002
    2ece:	cd4c0c13          	addi	s8,s8,-812 # 20001cd4 <DAP_Data>
    2ed2:	4a89                	li	s5,2
    2ed4:	4d85                	li	s11,1
    2ed6:	a081                	j	2f16 <DAP_ProcessCommand+0x13b0>
    2ed8:	4a39                	li	s4,14
    2eda:	47a2                	lw	a5,8(sp)
    2edc:	4729                	li	a4,10
    2ede:	02e78e63          	beq	a5,a4,2f1a <DAP_ProcessCommand+0x13b4>
    2ee2:	4529                	li	a0,10
    2ee4:	063000ef          	jal	ra,3746 <JTAG_IR>
    2ee8:	a80d                	j	2f1a <DAP_ProcessCommand+0x13b4>
    2eea:	0bb51363          	bne	a0,s11,2f90 <DAP_ProcessCommand+0x142a>
    2eee:	5792                	lw	a5,36(sp)
    2ef0:	00f48023          	sb	a5,0(s1)
    2ef4:	0087d713          	srli	a4,a5,0x8
    2ef8:	00e480a3          	sb	a4,1(s1)
    2efc:	0107d713          	srli	a4,a5,0x10
    2f00:	00e48123          	sb	a4,2(s1)
    2f04:	0491                	addi	s1,s1,4
    2f06:	83e1                	srli	a5,a5,0x18
    2f08:	fef48fa3          	sb	a5,-1(s1)
    2f0c:	0b05                	addi	s6,s6,1
    2f0e:	1d7d                	addi	s10,s10,-1
    2f10:	57fd                	li	a5,-1
    2f12:	06fd0f63          	beq	s10,a5,2f90 <DAP_ProcessCommand+0x142a>
    2f16:	fc0d01e3          	beqz	s10,2ed8 <DAP_ProcessCommand+0x1372>
    2f1a:	010c5983          	lhu	s3,16(s8)
    2f1e:	104c                	addi	a1,sp,36
    2f20:	8552                	mv	a0,s4
    2f22:	405000ef          	jal	ra,3b26 <JTAG_Transfer>
    2f26:	fd5512e3          	bne	a0,s5,2eea <DAP_ProcessCommand+0x1384>
    2f2a:	06098363          	beqz	s3,2f90 <DAP_ProcessCommand+0x142a>
    2f2e:	86818793          	addi	a5,gp,-1944 # 20000078 <DAP_TransferAbort>
    2f32:	0007c783          	lbu	a5,0(a5)
    2f36:	0ff7f793          	andi	a5,a5,255
    2f3a:	19fd                	addi	s3,s3,-1
    2f3c:	d3ed                	beqz	a5,2f1e <DAP_ProcessCommand+0x13b8>
    2f3e:	a889                	j	2f90 <DAP_ProcessCommand+0x142a>
    2f40:	4785                	li	a5,1
    2f42:	04f51763          	bne	a0,a5,2f90 <DAP_ProcessCommand+0x142a>
    2f46:	0b05                	addi	s6,s6,1
    2f48:	076d0863          	beq	s10,s6,2fb8 <DAP_ProcessCommand+0x1452>
    2f4c:	001c4783          	lbu	a5,1(s8)
    2f50:	07a2                	slli	a5,a5,0x8
    2f52:	002c4703          	lbu	a4,2(s8)
    2f56:	0742                	slli	a4,a4,0x10
    2f58:	8fd9                	or	a5,a5,a4
    2f5a:	000c4703          	lbu	a4,0(s8)
    2f5e:	8fd9                	or	a5,a5,a4
    2f60:	003c4703          	lbu	a4,3(s8)
    2f64:	0762                	slli	a4,a4,0x18
    2f66:	8fd9                	or	a5,a5,a4
    2f68:	d23e                	sw	a5,36(sp)
    2f6a:	0c11                	addi	s8,s8,4
    2f6c:	010dd983          	lhu	s3,16(s11)
    2f70:	104c                	addi	a1,sp,36
    2f72:	8552                	mv	a0,s4
    2f74:	3b3000ef          	jal	ra,3b26 <JTAG_Transfer>
    2f78:	fd5514e3          	bne	a0,s5,2f40 <DAP_ProcessCommand+0x13da>
    2f7c:	00098a63          	beqz	s3,2f90 <DAP_ProcessCommand+0x142a>
    2f80:	86818793          	addi	a5,gp,-1944 # 20000078 <DAP_TransferAbort>
    2f84:	0007c783          	lbu	a5,0(a5)
    2f88:	0ff7f793          	andi	a5,a5,255
    2f8c:	19fd                	addi	s3,s3,-1
    2f8e:	d3ed                	beqz	a5,2f70 <DAP_ProcessCommand+0x140a>
    2f90:	016400a3          	sb	s6,1(s0)
    2f94:	008b5b13          	srli	s6,s6,0x8
    2f98:	01640123          	sb	s6,2(s0)
    2f9c:	00a401a3          	sb	a0,3(s0)
    2fa0:	41948533          	sub	a0,s1,s9
    2fa4:	00494783          	lbu	a5,4(s2)
    2fa8:	8b89                	andi	a5,a5,2
    2faa:	c3b5                	beqz	a5,300e <DAP_ProcessCommand+0x14a8>
    2fac:	00040d37          	lui	s10,0x40
    2fb0:	01a56533          	or	a0,a0,s10
    2fb4:	ef3fe06f          	j	1ea6 <DAP_ProcessCommand+0x340>
    2fb8:	47a9                	li	a5,10
    2fba:	4722                	lw	a4,8(sp)
    2fbc:	02f71963          	bne	a4,a5,2fee <DAP_ProcessCommand+0x1488>
    2fc0:	200027b7          	lui	a5,0x20002
    2fc4:	ce47d983          	lhu	s3,-796(a5) # 20001ce4 <DAP_Data+0x10>
    2fc8:	4a89                	li	s5,2
    2fca:	4581                	li	a1,0
    2fcc:	4539                	li	a0,14
    2fce:	359000ef          	jal	ra,3b26 <JTAG_Transfer>
    2fd2:	03551a63          	bne	a0,s5,3006 <DAP_ProcessCommand+0x14a0>
    2fd6:	02098a63          	beqz	s3,300a <DAP_ProcessCommand+0x14a4>
    2fda:	86818793          	addi	a5,gp,-1944 # 20000078 <DAP_TransferAbort>
    2fde:	0007c783          	lbu	a5,0(a5)
    2fe2:	0ff7f793          	andi	a5,a5,255
    2fe6:	19fd                	addi	s3,s3,-1
    2fe8:	d3ed                	beqz	a5,2fca <DAP_ProcessCommand+0x1464>
    2fea:	8b6a                	mv	s6,s10
    2fec:	b755                	j	2f90 <DAP_ProcessCommand+0x142a>
    2fee:	4529                	li	a0,10
    2ff0:	756000ef          	jal	ra,3746 <JTAG_IR>
    2ff4:	b7f1                	j	2fc0 <DAP_ProcessCommand+0x145a>
    2ff6:	4501                	li	a0,0
    2ff8:	4b01                	li	s6,0
    2ffa:	bf59                	j	2f90 <DAP_ProcessCommand+0x142a>
    2ffc:	856a                	mv	a0,s10
    2ffe:	8b6a                	mv	s6,s10
    3000:	bf41                	j	2f90 <DAP_ProcessCommand+0x142a>
    3002:	4b01                	li	s6,0
    3004:	b771                	j	2f90 <DAP_ProcessCommand+0x142a>
    3006:	8b6a                	mv	s6,s10
    3008:	b761                	j	2f90 <DAP_ProcessCommand+0x142a>
    300a:	8b6a                	mv	s6,s10
    300c:	b751                	j	2f90 <DAP_ProcessCommand+0x142a>
    300e:	00394d03          	lbu	s10,3(s2)
    3012:	0d22                	slli	s10,s10,0x8
    3014:	00294783          	lbu	a5,2(s2)
    3018:	00fd6d33          	or	s10,s10,a5
    301c:	0d05                	addi	s10,s10,1
    301e:	0d4a                	slli	s10,s10,0x12
    3020:	00ad6533          	or	a0,s10,a0
    3024:	e83fe06f          	j	1ea6 <DAP_ProcessCommand+0x340>
    3028:	200027b7          	lui	a5,0x20002
    302c:	cd47c783          	lbu	a5,-812(a5) # 20001cd4 <DAP_Data>
    3030:	4705                	li	a4,1
    3032:	00e78d63          	beq	a5,a4,304c <DAP_ProcessCommand+0x14e6>
    3036:	4709                	li	a4,2
    3038:	04e78463          	beq	a5,a4,3080 <DAP_ProcessCommand+0x151a>
    303c:	57fd                	li	a5,-1
    303e:	00f580a3          	sb	a5,1(a1)
    3042:	00050537          	lui	a0,0x50
    3046:	0505                	addi	a0,a0,1
    3048:	e5ffe06f          	j	1ea6 <DAP_ProcessCommand+0x340>
    304c:	00354783          	lbu	a5,3(a0) # 50003 <_data_lma+0x4adf3>
    3050:	07a2                	slli	a5,a5,0x8
    3052:	00454703          	lbu	a4,4(a0)
    3056:	0742                	slli	a4,a4,0x10
    3058:	8fd9                	or	a5,a5,a4
    305a:	00254703          	lbu	a4,2(a0)
    305e:	8fd9                	or	a5,a5,a4
    3060:	00554703          	lbu	a4,5(a0)
    3064:	0762                	slli	a4,a4,0x18
    3066:	8fd9                	or	a5,a5,a4
    3068:	d23e                	sw	a5,36(sp)
    306a:	104c                	addi	a1,sp,36
    306c:	4501                	li	a0,0
    306e:	36a010ef          	jal	ra,43d8 <SWD_Transfer>
    3072:	000400a3          	sb	zero,1(s0)
    3076:	00050537          	lui	a0,0x50
    307a:	0505                	addi	a0,a0,1
    307c:	e2bfe06f          	j	1ea6 <DAP_ProcessCommand+0x340>
    3080:	00154703          	lbu	a4,1(a0) # 50001 <_data_lma+0x4adf1>
    3084:	200027b7          	lui	a5,0x20002
    3088:	cd478793          	addi	a5,a5,-812 # 20001cd4 <DAP_Data>
    308c:	00e78da3          	sb	a4,27(a5)
    3090:	01a7c783          	lbu	a5,26(a5)
    3094:	00f76a63          	bltu	a4,a5,30a8 <DAP_ProcessCommand+0x1542>
    3098:	57fd                	li	a5,-1
    309a:	00f580a3          	sb	a5,1(a1)
    309e:	00050537          	lui	a0,0x50
    30a2:	0505                	addi	a0,a0,1
    30a4:	e03fe06f          	j	1ea6 <DAP_ProcessCommand+0x340>
    30a8:	4521                	li	a0,8
    30aa:	69c000ef          	jal	ra,3746 <JTAG_IR>
    30ae:	00394783          	lbu	a5,3(s2)
    30b2:	07a2                	slli	a5,a5,0x8
    30b4:	00494703          	lbu	a4,4(s2)
    30b8:	0742                	slli	a4,a4,0x10
    30ba:	8fd9                	or	a5,a5,a4
    30bc:	00294703          	lbu	a4,2(s2)
    30c0:	8fd9                	or	a5,a5,a4
    30c2:	00594503          	lbu	a0,5(s2)
    30c6:	0562                	slli	a0,a0,0x18
    30c8:	8d5d                	or	a0,a0,a5
    30ca:	2edd                	jal	34c0 <JTAG_WriteAbort>
    30cc:	000400a3          	sb	zero,1(s0)
    30d0:	00050537          	lui	a0,0x50
    30d4:	0505                	addi	a0,a0,1
    30d6:	dd1fe06f          	j	1ea6 <DAP_ProcessCommand+0x340>
    30da:	57fd                	li	a5,-1
    30dc:	00f40023          	sb	a5,0(s0)
    30e0:	6541                	lui	a0,0x10
    30e2:	0505                	addi	a0,a0,1
    30e4:	dc9fe06f          	j	1eac <DAP_ProcessCommand+0x346>
    30e8:	8b52                	mv	s6,s4
    30ea:	a8e9                	j	31c4 <DAP_ProcessCommand+0x165e>
    30ec:	ca52                	sw	s4,20(sp)
    30ee:	a8d9                	j	31c4 <DAP_ProcessCommand+0x165e>
    30f0:	ca52                	sw	s4,20(sp)
    30f2:	4b01                	li	s6,0
    30f4:	a8c1                	j	31c4 <DAP_ProcessCommand+0x165e>
    30f6:	8b62                	mv	s6,s8
    30f8:	4509                	li	a0,2
    30fa:	a0e9                	j	31c4 <DAP_ProcessCommand+0x165e>
    30fc:	4c52                	lw	s8,20(sp)
    30fe:	87bff06f          	j	2978 <DAP_ProcessCommand+0xe12>
    3102:	872a                	mv	a4,a0
    3104:	8a26                	mv	s4,s1
    3106:	873ff06f          	j	2978 <DAP_ProcessCommand+0xe12>
    310a:	872a                	mv	a4,a0
    310c:	4a01                	li	s4,0
    310e:	86bff06f          	j	2978 <DAP_ProcessCommand+0xe12>
    3112:	4c29                	li	s8,10
    3114:	865ff06f          	j	2978 <DAP_ProcessCommand+0xe12>
    3118:	4c29                	li	s8,10
    311a:	85fff06f          	j	2978 <DAP_ProcessCommand+0xe12>
    311e:	cc26                	sw	s1,24(sp)
    3120:	859ff06f          	j	2978 <DAP_ProcessCommand+0xe12>
    3124:	cc26                	sw	s1,24(sp)
    3126:	4a01                	li	s4,0
    3128:	851ff06f          	j	2978 <DAP_ProcessCommand+0xe12>
    312c:	8dba                	mv	s11,a4
    312e:	010b7793          	andi	a5,s6,16
    3132:	4a01                	li	s4,0
    3134:	84078de3          	beqz	a5,298e <DAP_ProcessCommand+0xe28>
    3138:	0024cb03          	lbu	s6,2(s1)
    313c:	0b22                	slli	s6,s6,0x8
    313e:	0034c783          	lbu	a5,3(s1)
    3142:	07c2                	slli	a5,a5,0x10
    3144:	00fb6b33          	or	s6,s6,a5
    3148:	0014c783          	lbu	a5,1(s1)
    314c:	00fb6b33          	or	s6,s6,a5
    3150:	0044c783          	lbu	a5,4(s1)
    3154:	07e2                	slli	a5,a5,0x18
    3156:	00fb6b33          	or	s6,s6,a5
    315a:	00548793          	addi	a5,s1,5
    315e:	cc3e                	sw	a5,24(sp)
    3160:	012d5a83          	lhu	s5,18(s10) # 40012 <_data_lma+0x3ae02>
    3164:	47d2                	lw	a5,20(sp)
    3166:	f8fc1e63          	bne	s8,a5,2902 <DAP_ProcessCommand+0xd9c>
    316a:	010d5483          	lhu	s1,16(s10)
    316e:	4581                	li	a1,0
    3170:	4522                	lw	a0,8(sp)
    3172:	1b5000ef          	jal	ra,3b26 <JTAG_Transfer>
    3176:	872a                	mv	a4,a0
    3178:	f9351a63          	bne	a0,s3,290c <DAP_ProcessCommand+0xda6>
    317c:	fe048e63          	beqz	s1,2978 <DAP_ProcessCommand+0xe12>
    3180:	86818793          	addi	a5,gp,-1944 # 20000078 <DAP_TransferAbort>
    3184:	0007c783          	lbu	a5,0(a5)
    3188:	0ff7f793          	andi	a5,a5,255
    318c:	14fd                	addi	s1,s1,-1
    318e:	d3e5                	beqz	a5,316e <DAP_ProcessCommand+0x1608>
    3190:	fe8ff06f          	j	2978 <DAP_ProcessCommand+0xe12>
    3194:	8ad2                	mv	s5,s4
    3196:	a019                	j	319c <DAP_ProcessCommand+0x1636>
    3198:	47a9                	li	a5,10
    319a:	ca3e                	sw	a5,20(sp)
    319c:	4c52                	lw	s8,20(sp)
    319e:	8a56                	mv	s4,s5
    31a0:	4709                	li	a4,2
    31a2:	fd6ff06f          	j	2978 <DAP_ProcessCommand+0xe12>
    31a6:	4789                	li	a5,2
    31a8:	c83e                	sw	a5,16(sp)
    31aa:	200027b7          	lui	a5,0x20002
    31ae:	ce87a783          	lw	a5,-792(a5) # 20001ce8 <DAP_Data+0x14>
    31b2:	5712                	lw	a4,36(sp)
    31b4:	8ff9                	and	a5,a5,a4
    31b6:	00fc0763          	beq	s8,a5,31c4 <DAP_ProcessCommand+0x165e>
    31ba:	47c2                	lw	a5,16(sp)
    31bc:	0107e513          	ori	a0,a5,16
    31c0:	0ff57513          	andi	a0,a0,255
    31c4:	4a52                	lw	s4,20(sp)
    31c6:	d80b9b63          	bnez	s7,275c <DAP_ProcessCommand+0xbf6>
    31ca:	daeff06f          	j	2778 <DAP_ProcessCommand+0xc12>
    31ce:	c82a                	sw	a0,16(sp)
    31d0:	bfe9                	j	31aa <DAP_ProcessCommand+0x1644>
    31d2:	c82a                	sw	a0,16(sp)
    31d4:	f8aff06f          	j	295e <DAP_ProcessCommand+0xdf8>
    31d8:	c16baa23          	sw	s6,-1004(s7)
    31dc:	c04ba783          	lw	a5,-1020(s7)
    31e0:	0157f7b3          	and	a5,a5,s5
    31e4:	0197e7b3          	or	a5,a5,s9
    31e8:	c0fba223          	sw	a5,-1020(s7)
    31ec:	f9dfe06f          	j	2188 <DAP_ProcessCommand+0x622>

000031f0 <DAP_Setup>:
    31f0:	840fd2ef          	jal	t0,230 <__riscv_save_0>
    31f4:	1141                	addi	sp,sp,-16
    31f6:	200027b7          	lui	a5,0x20002
    31fa:	cd478793          	addi	a5,a5,-812 # 20001cd4 <DAP_Data>
    31fe:	00078023          	sb	zero,0(a5)
    3202:	00078623          	sb	zero,12(a5)
    3206:	06400713          	li	a4,100
    320a:	00e79823          	sh	a4,16(a5)
    320e:	00079923          	sh	zero,18(a5)
    3212:	0007aa23          	sw	zero,20(a5)
    3216:	4705                	li	a4,1
    3218:	00e78c23          	sb	a4,24(a5)
    321c:	00078ca3          	sb	zero,25(a5)
    3220:	00078d23          	sb	zero,26(a5)
    3224:	000780a3          	sb	zero,1(a5)
    3228:	4719                	li	a4,6
    322a:	c3d8                	sw	a4,4(a5)
    322c:	897fe0ef          	jal	ra,1ac2 <PORT_OFF>
    3230:	08000413          	li	s0,128
    3234:	00811223          	sh	s0,4(sp)
    3238:	47c1                	li	a5,16
    323a:	c63e                	sw	a5,12(sp)
    323c:	478d                	li	a5,3
    323e:	c43e                	sw	a5,8(sp)
    3240:	004c                	addi	a1,sp,4
    3242:	40011537          	lui	a0,0x40011
    3246:	cebfd0ef          	jal	ra,f30 <GPIO_Init>
    324a:	00811223          	sh	s0,4(sp)
    324e:	004c                	addi	a1,sp,4
    3250:	40011537          	lui	a0,0x40011
    3254:	cddfd0ef          	jal	ra,f30 <GPIO_Init>
    3258:	10000593          	li	a1,256
    325c:	40011537          	lui	a0,0x40011
    3260:	d9bfd0ef          	jal	ra,ffa <GPIO_SetBits>
    3264:	10000793          	li	a5,256
    3268:	00f11223          	sh	a5,4(sp)
    326c:	47d1                	li	a5,20
    326e:	c63e                	sw	a5,12(sp)
    3270:	004c                	addi	a1,sp,4
    3272:	40011537          	lui	a0,0x40011
    3276:	cbbfd0ef          	jal	ra,f30 <GPIO_Init>
    327a:	0141                	addi	sp,sp,16
    327c:	fd9fc06f          	j	254 <__riscv_restore_0>

00003280 <JTAG_Sequence>:
    3280:	03f57313          	andi	t1,a0,63
    3284:	00031463          	bnez	t1,328c <JTAG_Sequence+0xc>
    3288:	04000313          	li	t1,64
    328c:	04057793          	andi	a5,a0,64
    3290:	cf95                	beqz	a5,32cc <JTAG_Sequence+0x4c>
    3292:	400117b7          	lui	a5,0x40011
    3296:	6705                	lui	a4,0x1
    3298:	c0e7a823          	sw	a4,-1008(a5) # 40010c10 <_eusrstack+0x20008c10>
    329c:	0c030663          	beqz	t1,3368 <JTAG_Sequence+0xe8>
    32a0:	1141                	addi	sp,sp,-16
    32a2:	c622                	sw	s0,12(sp)
    32a4:	c426                	sw	s1,8(sp)
    32a6:	c24a                	sw	s2,4(sp)
    32a8:	c04e                	sw	s3,0(sp)
    32aa:	08057393          	andi	t2,a0,128
    32ae:	4981                	li	s3,0
    32b0:	44a1                	li	s1,8
    32b2:	20002437          	lui	s0,0x20002
    32b6:	cd440413          	addi	s0,s0,-812 # 20001cd4 <DAP_Data>
    32ba:	40011837          	lui	a6,0x40011
    32be:	c0080813          	addi	a6,a6,-1024 # 40010c00 <_eusrstack+0x20008c00>
    32c2:	62a1                	lui	t0,0x8
    32c4:	6f09                	lui	t5,0x2
    32c6:	8ffa                	mv	t6,t5
    32c8:	491d                	li	s2,7
    32ca:	a09d                	j	3330 <JTAG_Sequence+0xb0>
    32cc:	400117b7          	lui	a5,0x40011
    32d0:	6705                	lui	a4,0x1
    32d2:	c0e7aa23          	sw	a4,-1004(a5) # 40010c14 <_eusrstack+0x20008c14>
    32d6:	b7d9                	j	329c <JTAG_Sequence+0x1c>
    32d8:	00582a23          	sw	t0,20(a6)
    32dc:	01f82a23          	sw	t6,20(a6)
    32e0:	87f2                	mv	a5,t3
    32e2:	17fd                	addi	a5,a5,-1
    32e4:	fffd                	bnez	a5,32e2 <JTAG_Sequence+0x62>
    32e6:	00882783          	lw	a5,8(a6)
    32ea:	83b9                	srli	a5,a5,0xe
    32ec:	0017f713          	andi	a4,a5,1
    32f0:	01e82823          	sw	t5,16(a6)
    32f4:	87f2                	mv	a5,t3
    32f6:	17fd                	addi	a5,a5,-1
    32f8:	fffd                	bnez	a5,32f6 <JTAG_Sequence+0x76>
    32fa:	0018d893          	srli	a7,a7,0x1
    32fe:	8105                	srli	a0,a0,0x1
    3300:	00771793          	slli	a5,a4,0x7
    3304:	8d5d                	or	a0,a0,a5
    3306:	00d307b3          	add	a5,t1,a3
    330a:	16fd                	addi	a3,a3,-1
    330c:	01d68963          	beq	a3,t4,331e <JTAG_Sequence+0x9e>
    3310:	c2a1                	beqz	a3,3350 <JTAG_Sequence+0xd0>
    3312:	0018f793          	andi	a5,a7,1
    3316:	d3e9                	beqz	a5,32d8 <JTAG_Sequence+0x58>
    3318:	00582823          	sw	t0,16(a6)
    331c:	b7c1                	j	32dc <JTAG_Sequence+0x5c>
    331e:	8376                	mv	t1,t4
    3320:	00038663          	beqz	t2,332c <JTAG_Sequence+0xac>
    3324:	00a60023          	sb	a0,0(a2)
    3328:	8376                	mv	t1,t4
    332a:	0605                	addi	a2,a2,1
    332c:	02030863          	beqz	t1,335c <JTAG_Sequence+0xdc>
    3330:	0585                	addi	a1,a1,1
    3332:	fff5c883          	lbu	a7,-1(a1)
    3336:	00030b63          	beqz	t1,334c <JTAG_Sequence+0xcc>
    333a:	00442e03          	lw	t3,4(s0)
    333e:	ff830e93          	addi	t4,t1,-8
    3342:	869a                	mv	a3,t1
    3344:	4501                	li	a0,0
    3346:	40690333          	sub	t1,s2,t1
    334a:	b7e1                	j	3312 <JTAG_Sequence+0x92>
    334c:	851a                	mv	a0,t1
    334e:	87a6                	mv	a5,s1
    3350:	00038663          	beqz	t2,335c <JTAG_Sequence+0xdc>
    3354:	00f55533          	srl	a0,a0,a5
    3358:	8ece                	mv	t4,s3
    335a:	b7e9                	j	3324 <JTAG_Sequence+0xa4>
    335c:	4432                	lw	s0,12(sp)
    335e:	44a2                	lw	s1,8(sp)
    3360:	4912                	lw	s2,4(sp)
    3362:	4982                	lw	s3,0(sp)
    3364:	0141                	addi	sp,sp,16
    3366:	8082                	ret
    3368:	8082                	ret

0000336a <JTAG_ReadIDCode>:
    336a:	400117b7          	lui	a5,0x40011
    336e:	6705                	lui	a4,0x1
    3370:	c0e7a823          	sw	a4,-1008(a5) # 40010c10 <_eusrstack+0x20008c10>
    3374:	6709                	lui	a4,0x2
    3376:	c0e7aa23          	sw	a4,-1004(a5)
    337a:	200027b7          	lui	a5,0x20002
    337e:	cd87a683          	lw	a3,-808(a5) # 20001cd8 <DAP_Data+0x4>
    3382:	87b6                	mv	a5,a3
    3384:	17fd                	addi	a5,a5,-1
    3386:	fffd                	bnez	a5,3384 <JTAG_ReadIDCode+0x1a>
    3388:	400117b7          	lui	a5,0x40011
    338c:	6709                	lui	a4,0x2
    338e:	c0e7a823          	sw	a4,-1008(a5) # 40010c10 <_eusrstack+0x20008c10>
    3392:	87b6                	mv	a5,a3
    3394:	17fd                	addi	a5,a5,-1
    3396:	fffd                	bnez	a5,3394 <JTAG_ReadIDCode+0x2a>
    3398:	400117b7          	lui	a5,0x40011
    339c:	6705                	lui	a4,0x1
    339e:	c0e7aa23          	sw	a4,-1004(a5) # 40010c14 <_eusrstack+0x20008c14>
    33a2:	6709                	lui	a4,0x2
    33a4:	c0e7aa23          	sw	a4,-1004(a5)
    33a8:	87b6                	mv	a5,a3
    33aa:	17fd                	addi	a5,a5,-1
    33ac:	fffd                	bnez	a5,33aa <JTAG_ReadIDCode+0x40>
    33ae:	400117b7          	lui	a5,0x40011
    33b2:	6709                	lui	a4,0x2
    33b4:	c0e7a823          	sw	a4,-1008(a5) # 40010c10 <_eusrstack+0x20008c10>
    33b8:	87b6                	mv	a5,a3
    33ba:	17fd                	addi	a5,a5,-1
    33bc:	fffd                	bnez	a5,33ba <JTAG_ReadIDCode+0x50>
    33be:	400117b7          	lui	a5,0x40011
    33c2:	6709                	lui	a4,0x2
    33c4:	c0e7aa23          	sw	a4,-1004(a5) # 40010c14 <_eusrstack+0x20008c14>
    33c8:	87b6                	mv	a5,a3
    33ca:	17fd                	addi	a5,a5,-1
    33cc:	fffd                	bnez	a5,33ca <JTAG_ReadIDCode+0x60>
    33ce:	400117b7          	lui	a5,0x40011
    33d2:	6709                	lui	a4,0x2
    33d4:	c0e7a823          	sw	a4,-1008(a5) # 40010c10 <_eusrstack+0x20008c10>
    33d8:	8536                	mv	a0,a3
    33da:	157d                	addi	a0,a0,-1
    33dc:	fd7d                	bnez	a0,33da <JTAG_ReadIDCode+0x70>
    33de:	200027b7          	lui	a5,0x20002
    33e2:	cef7c783          	lbu	a5,-785(a5) # 20001cef <DAP_Data+0x1b>
    33e6:	c395                	beqz	a5,340a <JTAG_ReadIDCode+0xa0>
    33e8:	40011637          	lui	a2,0x40011
    33ec:	c0060613          	addi	a2,a2,-1024 # 40010c00 <_eusrstack+0x20008c00>
    33f0:	6589                	lui	a1,0x2
    33f2:	882e                	mv	a6,a1
    33f4:	01062a23          	sw	a6,20(a2)
    33f8:	8736                	mv	a4,a3
    33fa:	177d                	addi	a4,a4,-1
    33fc:	ff7d                	bnez	a4,33fa <JTAG_ReadIDCode+0x90>
    33fe:	ca0c                	sw	a1,16(a2)
    3400:	8736                	mv	a4,a3
    3402:	177d                	addi	a4,a4,-1
    3404:	ff7d                	bnez	a4,3402 <JTAG_ReadIDCode+0x98>
    3406:	17fd                	addi	a5,a5,-1
    3408:	f7f5                	bnez	a5,33f4 <JTAG_ReadIDCode+0x8a>
    340a:	45fd                	li	a1,31
    340c:	40011637          	lui	a2,0x40011
    3410:	c0060613          	addi	a2,a2,-1024 # 40010c00 <_eusrstack+0x20008c00>
    3414:	6809                	lui	a6,0x2
    3416:	88c2                	mv	a7,a6
    3418:	01162a23          	sw	a7,20(a2)
    341c:	87b6                	mv	a5,a3
    341e:	17fd                	addi	a5,a5,-1
    3420:	fffd                	bnez	a5,341e <JTAG_ReadIDCode+0xb4>
    3422:	4618                	lw	a4,8(a2)
    3424:	00e75793          	srli	a5,a4,0xe
    3428:	0017f713          	andi	a4,a5,1
    342c:	01062823          	sw	a6,16(a2)
    3430:	87b6                	mv	a5,a3
    3432:	17fd                	addi	a5,a5,-1
    3434:	fffd                	bnez	a5,3432 <JTAG_ReadIDCode+0xc8>
    3436:	01f71793          	slli	a5,a4,0x1f
    343a:	8fc9                	or	a5,a5,a0
    343c:	0017d513          	srli	a0,a5,0x1
    3440:	15fd                	addi	a1,a1,-1
    3442:	f9f9                	bnez	a1,3418 <JTAG_ReadIDCode+0xae>
    3444:	400117b7          	lui	a5,0x40011
    3448:	6705                	lui	a4,0x1
    344a:	c0e7a823          	sw	a4,-1008(a5) # 40010c10 <_eusrstack+0x20008c10>
    344e:	6709                	lui	a4,0x2
    3450:	c0e7aa23          	sw	a4,-1004(a5)
    3454:	87b6                	mv	a5,a3
    3456:	17fd                	addi	a5,a5,-1
    3458:	fffd                	bnez	a5,3456 <JTAG_ReadIDCode+0xec>
    345a:	40011637          	lui	a2,0x40011
    345e:	c0862783          	lw	a5,-1016(a2) # 40010c08 <_eusrstack+0x20008c08>
    3462:	83b9                	srli	a5,a5,0xe
    3464:	0017f713          	andi	a4,a5,1
    3468:	6789                	lui	a5,0x2
    346a:	c0f62823          	sw	a5,-1008(a2)
    346e:	87b6                	mv	a5,a3
    3470:	17fd                	addi	a5,a5,-1
    3472:	fffd                	bnez	a5,3470 <JTAG_ReadIDCode+0x106>
    3474:	01f71793          	slli	a5,a4,0x1f
    3478:	8d5d                	or	a0,a0,a5
    347a:	400117b7          	lui	a5,0x40011
    347e:	6709                	lui	a4,0x2
    3480:	c0e7aa23          	sw	a4,-1004(a5) # 40010c14 <_eusrstack+0x20008c14>
    3484:	87b6                	mv	a5,a3
    3486:	17fd                	addi	a5,a5,-1
    3488:	fffd                	bnez	a5,3486 <JTAG_ReadIDCode+0x11c>
    348a:	400117b7          	lui	a5,0x40011
    348e:	6709                	lui	a4,0x2
    3490:	c0e7a823          	sw	a4,-1008(a5) # 40010c10 <_eusrstack+0x20008c10>
    3494:	87b6                	mv	a5,a3
    3496:	17fd                	addi	a5,a5,-1
    3498:	fffd                	bnez	a5,3496 <JTAG_ReadIDCode+0x12c>
    349a:	400117b7          	lui	a5,0x40011
    349e:	6705                	lui	a4,0x1
    34a0:	c0e7aa23          	sw	a4,-1004(a5) # 40010c14 <_eusrstack+0x20008c14>
    34a4:	6709                	lui	a4,0x2
    34a6:	c0e7aa23          	sw	a4,-1004(a5)
    34aa:	87b6                	mv	a5,a3
    34ac:	17fd                	addi	a5,a5,-1
    34ae:	fffd                	bnez	a5,34ac <JTAG_ReadIDCode+0x142>
    34b0:	400117b7          	lui	a5,0x40011
    34b4:	6709                	lui	a4,0x2
    34b6:	c0e7a823          	sw	a4,-1008(a5) # 40010c10 <_eusrstack+0x20008c10>
    34ba:	16fd                	addi	a3,a3,-1
    34bc:	fefd                	bnez	a3,34ba <JTAG_ReadIDCode+0x150>
    34be:	8082                	ret

000034c0 <JTAG_WriteAbort>:
    34c0:	400117b7          	lui	a5,0x40011
    34c4:	6705                	lui	a4,0x1
    34c6:	c0e7a823          	sw	a4,-1008(a5) # 40010c10 <_eusrstack+0x20008c10>
    34ca:	6709                	lui	a4,0x2
    34cc:	c0e7aa23          	sw	a4,-1004(a5)
    34d0:	200027b7          	lui	a5,0x20002
    34d4:	cd87a603          	lw	a2,-808(a5) # 20001cd8 <DAP_Data+0x4>
    34d8:	87b2                	mv	a5,a2
    34da:	17fd                	addi	a5,a5,-1
    34dc:	fffd                	bnez	a5,34da <JTAG_WriteAbort+0x1a>
    34de:	400117b7          	lui	a5,0x40011
    34e2:	6709                	lui	a4,0x2
    34e4:	c0e7a823          	sw	a4,-1008(a5) # 40010c10 <_eusrstack+0x20008c10>
    34e8:	87b2                	mv	a5,a2
    34ea:	17fd                	addi	a5,a5,-1
    34ec:	fffd                	bnez	a5,34ea <JTAG_WriteAbort+0x2a>
    34ee:	400117b7          	lui	a5,0x40011
    34f2:	6705                	lui	a4,0x1
    34f4:	c0e7aa23          	sw	a4,-1004(a5) # 40010c14 <_eusrstack+0x20008c14>
    34f8:	6709                	lui	a4,0x2
    34fa:	c0e7aa23          	sw	a4,-1004(a5)
    34fe:	87b2                	mv	a5,a2
    3500:	17fd                	addi	a5,a5,-1
    3502:	fffd                	bnez	a5,3500 <JTAG_WriteAbort+0x40>
    3504:	400117b7          	lui	a5,0x40011
    3508:	6709                	lui	a4,0x2
    350a:	c0e7a823          	sw	a4,-1008(a5) # 40010c10 <_eusrstack+0x20008c10>
    350e:	87b2                	mv	a5,a2
    3510:	17fd                	addi	a5,a5,-1
    3512:	fffd                	bnez	a5,3510 <JTAG_WriteAbort+0x50>
    3514:	400117b7          	lui	a5,0x40011
    3518:	6709                	lui	a4,0x2
    351a:	c0e7aa23          	sw	a4,-1004(a5) # 40010c14 <_eusrstack+0x20008c14>
    351e:	87b2                	mv	a5,a2
    3520:	17fd                	addi	a5,a5,-1
    3522:	fffd                	bnez	a5,3520 <JTAG_WriteAbort+0x60>
    3524:	400117b7          	lui	a5,0x40011
    3528:	6709                	lui	a4,0x2
    352a:	c0e7a823          	sw	a4,-1008(a5) # 40010c10 <_eusrstack+0x20008c10>
    352e:	87b2                	mv	a5,a2
    3530:	17fd                	addi	a5,a5,-1
    3532:	fffd                	bnez	a5,3530 <JTAG_WriteAbort+0x70>
    3534:	200027b7          	lui	a5,0x20002
    3538:	cef7c703          	lbu	a4,-785(a5) # 20001cef <DAP_Data+0x1b>
    353c:	c315                	beqz	a4,3560 <JTAG_WriteAbort+0xa0>
    353e:	400116b7          	lui	a3,0x40011
    3542:	c0068693          	addi	a3,a3,-1024 # 40010c00 <_eusrstack+0x20008c00>
    3546:	6589                	lui	a1,0x2
    3548:	882e                	mv	a6,a1
    354a:	0106aa23          	sw	a6,20(a3)
    354e:	87b2                	mv	a5,a2
    3550:	17fd                	addi	a5,a5,-1
    3552:	fffd                	bnez	a5,3550 <JTAG_WriteAbort+0x90>
    3554:	ca8c                	sw	a1,16(a3)
    3556:	87b2                	mv	a5,a2
    3558:	17fd                	addi	a5,a5,-1
    355a:	fffd                	bnez	a5,3558 <JTAG_WriteAbort+0x98>
    355c:	177d                	addi	a4,a4,-1
    355e:	f775                	bnez	a4,354a <JTAG_WriteAbort+0x8a>
    3560:	400117b7          	lui	a5,0x40011
    3564:	6721                	lui	a4,0x8
    3566:	c0e7aa23          	sw	a4,-1004(a5) # 40010c14 <_eusrstack+0x20008c14>
    356a:	6709                	lui	a4,0x2
    356c:	c0e7aa23          	sw	a4,-1004(a5)
    3570:	87b2                	mv	a5,a2
    3572:	17fd                	addi	a5,a5,-1
    3574:	fffd                	bnez	a5,3572 <JTAG_WriteAbort+0xb2>
    3576:	400117b7          	lui	a5,0x40011
    357a:	6709                	lui	a4,0x2
    357c:	c0e7a823          	sw	a4,-1008(a5) # 40010c10 <_eusrstack+0x20008c10>
    3580:	87b2                	mv	a5,a2
    3582:	17fd                	addi	a5,a5,-1
    3584:	fffd                	bnez	a5,3582 <JTAG_WriteAbort+0xc2>
    3586:	400117b7          	lui	a5,0x40011
    358a:	6709                	lui	a4,0x2
    358c:	c0e7aa23          	sw	a4,-1004(a5) # 40010c14 <_eusrstack+0x20008c14>
    3590:	87b2                	mv	a5,a2
    3592:	17fd                	addi	a5,a5,-1
    3594:	fffd                	bnez	a5,3592 <JTAG_WriteAbort+0xd2>
    3596:	400117b7          	lui	a5,0x40011
    359a:	6709                	lui	a4,0x2
    359c:	c0e7a823          	sw	a4,-1008(a5) # 40010c10 <_eusrstack+0x20008c10>
    35a0:	87b2                	mv	a5,a2
    35a2:	17fd                	addi	a5,a5,-1
    35a4:	fffd                	bnez	a5,35a2 <JTAG_WriteAbort+0xe2>
    35a6:	400117b7          	lui	a5,0x40011
    35aa:	6709                	lui	a4,0x2
    35ac:	c0e7aa23          	sw	a4,-1004(a5) # 40010c14 <_eusrstack+0x20008c14>
    35b0:	87b2                	mv	a5,a2
    35b2:	17fd                	addi	a5,a5,-1
    35b4:	fffd                	bnez	a5,35b2 <JTAG_WriteAbort+0xf2>
    35b6:	400117b7          	lui	a5,0x40011
    35ba:	6709                	lui	a4,0x2
    35bc:	c0e7a823          	sw	a4,-1008(a5) # 40010c10 <_eusrstack+0x20008c10>
    35c0:	87b2                	mv	a5,a2
    35c2:	17fd                	addi	a5,a5,-1
    35c4:	fffd                	bnez	a5,35c2 <JTAG_WriteAbort+0x102>
    35c6:	46fd                	li	a3,31
    35c8:	40011737          	lui	a4,0x40011
    35cc:	c0070713          	addi	a4,a4,-1024 # 40010c00 <_eusrstack+0x20008c00>
    35d0:	68a1                	lui	a7,0x8
    35d2:	6589                	lui	a1,0x2
    35d4:	882e                	mv	a6,a1
    35d6:	a839                	j	35f4 <JTAG_WriteAbort+0x134>
    35d8:	01172a23          	sw	a7,20(a4)
    35dc:	01072a23          	sw	a6,20(a4)
    35e0:	87b2                	mv	a5,a2
    35e2:	17fd                	addi	a5,a5,-1
    35e4:	fffd                	bnez	a5,35e2 <JTAG_WriteAbort+0x122>
    35e6:	cb0c                	sw	a1,16(a4)
    35e8:	87b2                	mv	a5,a2
    35ea:	17fd                	addi	a5,a5,-1
    35ec:	fffd                	bnez	a5,35ea <JTAG_WriteAbort+0x12a>
    35ee:	8105                	srli	a0,a0,0x1
    35f0:	16fd                	addi	a3,a3,-1
    35f2:	c699                	beqz	a3,3600 <JTAG_WriteAbort+0x140>
    35f4:	00157793          	andi	a5,a0,1
    35f8:	d3e5                	beqz	a5,35d8 <JTAG_WriteAbort+0x118>
    35fa:	01172823          	sw	a7,16(a4)
    35fe:	bff9                	j	35dc <JTAG_WriteAbort+0x11c>
    3600:	200027b7          	lui	a5,0x20002
    3604:	cd478793          	addi	a5,a5,-812 # 20001cd4 <DAP_Data>
    3608:	01a7c683          	lbu	a3,26(a5)
    360c:	01b7c783          	lbu	a5,27(a5)
    3610:	8e9d                	sub	a3,a3,a5
    3612:	4785                	li	a5,1
    3614:	0ef68363          	beq	a3,a5,36fa <JTAG_WriteAbort+0x23a>
    3618:	8905                	andi	a0,a0,1
    361a:	c971                	beqz	a0,36ee <JTAG_WriteAbort+0x22e>
    361c:	400117b7          	lui	a5,0x40011
    3620:	6721                	lui	a4,0x8
    3622:	c0e7a823          	sw	a4,-1008(a5) # 40010c10 <_eusrstack+0x20008c10>
    3626:	400117b7          	lui	a5,0x40011
    362a:	6709                	lui	a4,0x2
    362c:	c0e7aa23          	sw	a4,-1004(a5) # 40010c14 <_eusrstack+0x20008c14>
    3630:	200027b7          	lui	a5,0x20002
    3634:	cd87a703          	lw	a4,-808(a5) # 20001cd8 <DAP_Data+0x4>
    3638:	87ba                	mv	a5,a4
    363a:	17fd                	addi	a5,a5,-1
    363c:	fffd                	bnez	a5,363a <JTAG_WriteAbort+0x17a>
    363e:	400117b7          	lui	a5,0x40011
    3642:	6609                	lui	a2,0x2
    3644:	c0c7a823          	sw	a2,-1008(a5) # 40010c10 <_eusrstack+0x20008c10>
    3648:	87ba                	mv	a5,a4
    364a:	17fd                	addi	a5,a5,-1
    364c:	fffd                	bnez	a5,364a <JTAG_WriteAbort+0x18a>
    364e:	16f9                	addi	a3,a3,-2
    3650:	c28d                	beqz	a3,3672 <JTAG_WriteAbort+0x1b2>
    3652:	40011637          	lui	a2,0x40011
    3656:	c0060613          	addi	a2,a2,-1024 # 40010c00 <_eusrstack+0x20008c00>
    365a:	6589                	lui	a1,0x2
    365c:	852e                	mv	a0,a1
    365e:	ca48                	sw	a0,20(a2)
    3660:	87ba                	mv	a5,a4
    3662:	17fd                	addi	a5,a5,-1
    3664:	fffd                	bnez	a5,3662 <JTAG_WriteAbort+0x1a2>
    3666:	ca0c                	sw	a1,16(a2)
    3668:	87ba                	mv	a5,a4
    366a:	17fd                	addi	a5,a5,-1
    366c:	fffd                	bnez	a5,366a <JTAG_WriteAbort+0x1aa>
    366e:	16fd                	addi	a3,a3,-1
    3670:	f6fd                	bnez	a3,365e <JTAG_WriteAbort+0x19e>
    3672:	400117b7          	lui	a5,0x40011
    3676:	6685                	lui	a3,0x1
    3678:	c0d7a823          	sw	a3,-1008(a5) # 40010c10 <_eusrstack+0x20008c10>
    367c:	6689                	lui	a3,0x2
    367e:	c0d7aa23          	sw	a3,-1004(a5)
    3682:	87ba                	mv	a5,a4
    3684:	17fd                	addi	a5,a5,-1
    3686:	fffd                	bnez	a5,3684 <JTAG_WriteAbort+0x1c4>
    3688:	400117b7          	lui	a5,0x40011
    368c:	6689                	lui	a3,0x2
    368e:	c0d7a823          	sw	a3,-1008(a5) # 40010c10 <_eusrstack+0x20008c10>
    3692:	177d                	addi	a4,a4,-1
    3694:	ff7d                	bnez	a4,3692 <JTAG_WriteAbort+0x1d2>
    3696:	400117b7          	lui	a5,0x40011
    369a:	6709                	lui	a4,0x2
    369c:	c0e7aa23          	sw	a4,-1004(a5) # 40010c14 <_eusrstack+0x20008c14>
    36a0:	200027b7          	lui	a5,0x20002
    36a4:	cd87a783          	lw	a5,-808(a5) # 20001cd8 <DAP_Data+0x4>
    36a8:	873e                	mv	a4,a5
    36aa:	177d                	addi	a4,a4,-1
    36ac:	ff7d                	bnez	a4,36aa <JTAG_WriteAbort+0x1ea>
    36ae:	40011737          	lui	a4,0x40011
    36b2:	6689                	lui	a3,0x2
    36b4:	c0d72823          	sw	a3,-1008(a4) # 40010c10 <_eusrstack+0x20008c10>
    36b8:	873e                	mv	a4,a5
    36ba:	177d                	addi	a4,a4,-1
    36bc:	ff7d                	bnez	a4,36ba <JTAG_WriteAbort+0x1fa>
    36be:	40011737          	lui	a4,0x40011
    36c2:	6685                	lui	a3,0x1
    36c4:	c0d72a23          	sw	a3,-1004(a4) # 40010c14 <_eusrstack+0x20008c14>
    36c8:	6689                	lui	a3,0x2
    36ca:	c0d72a23          	sw	a3,-1004(a4)
    36ce:	873e                	mv	a4,a5
    36d0:	177d                	addi	a4,a4,-1
    36d2:	ff7d                	bnez	a4,36d0 <JTAG_WriteAbort+0x210>
    36d4:	40011737          	lui	a4,0x40011
    36d8:	6689                	lui	a3,0x2
    36da:	c0d72823          	sw	a3,-1008(a4) # 40010c10 <_eusrstack+0x20008c10>
    36de:	17fd                	addi	a5,a5,-1
    36e0:	fffd                	bnez	a5,36de <JTAG_WriteAbort+0x21e>
    36e2:	400117b7          	lui	a5,0x40011
    36e6:	6721                	lui	a4,0x8
    36e8:	c0e7a823          	sw	a4,-1008(a5) # 40010c10 <_eusrstack+0x20008c10>
    36ec:	8082                	ret
    36ee:	400117b7          	lui	a5,0x40011
    36f2:	6721                	lui	a4,0x8
    36f4:	c0e7aa23          	sw	a4,-1004(a5) # 40010c14 <_eusrstack+0x20008c14>
    36f8:	b73d                	j	3626 <JTAG_WriteAbort+0x166>
    36fa:	400117b7          	lui	a5,0x40011
    36fe:	6705                	lui	a4,0x1
    3700:	c0e7a823          	sw	a4,-1008(a5) # 40010c10 <_eusrstack+0x20008c10>
    3704:	8905                	andi	a0,a0,1
    3706:	c915                	beqz	a0,373a <JTAG_WriteAbort+0x27a>
    3708:	400117b7          	lui	a5,0x40011
    370c:	6721                	lui	a4,0x8
    370e:	c0e7a823          	sw	a4,-1008(a5) # 40010c10 <_eusrstack+0x20008c10>
    3712:	400117b7          	lui	a5,0x40011
    3716:	6709                	lui	a4,0x2
    3718:	c0e7aa23          	sw	a4,-1004(a5) # 40010c14 <_eusrstack+0x20008c14>
    371c:	200027b7          	lui	a5,0x20002
    3720:	cd87a783          	lw	a5,-808(a5) # 20001cd8 <DAP_Data+0x4>
    3724:	873e                	mv	a4,a5
    3726:	177d                	addi	a4,a4,-1
    3728:	ff7d                	bnez	a4,3726 <JTAG_WriteAbort+0x266>
    372a:	40011737          	lui	a4,0x40011
    372e:	6689                	lui	a3,0x2
    3730:	c0d72823          	sw	a3,-1008(a4) # 40010c10 <_eusrstack+0x20008c10>
    3734:	17fd                	addi	a5,a5,-1
    3736:	fffd                	bnez	a5,3734 <JTAG_WriteAbort+0x274>
    3738:	bfb9                	j	3696 <JTAG_WriteAbort+0x1d6>
    373a:	400117b7          	lui	a5,0x40011
    373e:	6721                	lui	a4,0x8
    3740:	c0e7aa23          	sw	a4,-1004(a5) # 40010c14 <_eusrstack+0x20008c14>
    3744:	b7f9                	j	3712 <JTAG_WriteAbort+0x252>

00003746 <JTAG_IR>:
    3746:	200027b7          	lui	a5,0x20002
    374a:	cd57c783          	lbu	a5,-811(a5) # 20001cd5 <DAP_Data+0x1>
    374e:	16078363          	beqz	a5,38b4 <JTAG_IR+0x16e>
    3752:	400117b7          	lui	a5,0x40011
    3756:	6685                	lui	a3,0x1
    3758:	c0d7a823          	sw	a3,-1008(a5) # 40010c10 <_eusrstack+0x20008c10>
    375c:	6709                	lui	a4,0x2
    375e:	c0e7aa23          	sw	a4,-1004(a5)
    3762:	c0e7a823          	sw	a4,-1008(a5)
    3766:	c0e7aa23          	sw	a4,-1004(a5)
    376a:	c0e7a823          	sw	a4,-1008(a5)
    376e:	c0d7aa23          	sw	a3,-1004(a5)
    3772:	c0e7aa23          	sw	a4,-1004(a5)
    3776:	c0e7a823          	sw	a4,-1008(a5)
    377a:	c0e7aa23          	sw	a4,-1004(a5)
    377e:	c0e7a823          	sw	a4,-1008(a5)
    3782:	6721                	lui	a4,0x8
    3784:	c0e7a823          	sw	a4,-1008(a5)
    3788:	200027b7          	lui	a5,0x20002
    378c:	cd478793          	addi	a5,a5,-812 # 20001cd4 <DAP_Data>
    3790:	01b7c703          	lbu	a4,27(a5)
    3794:	0721                	addi	a4,a4,8
    3796:	0706                	slli	a4,a4,0x1
    3798:	97ba                	add	a5,a5,a4
    379a:	0147d783          	lhu	a5,20(a5)
    379e:	cb91                	beqz	a5,37b2 <JTAG_IR+0x6c>
    37a0:	40011737          	lui	a4,0x40011
    37a4:	c0070713          	addi	a4,a4,-1024 # 40010c00 <_eusrstack+0x20008c00>
    37a8:	6689                	lui	a3,0x2
    37aa:	cb54                	sw	a3,20(a4)
    37ac:	cb14                	sw	a3,16(a4)
    37ae:	17fd                	addi	a5,a5,-1
    37b0:	ffed                	bnez	a5,37aa <JTAG_IR+0x64>
    37b2:	200027b7          	lui	a5,0x20002
    37b6:	cd478793          	addi	a5,a5,-812 # 20001cd4 <DAP_Data>
    37ba:	01b7c703          	lbu	a4,27(a5)
    37be:	97ba                	add	a5,a5,a4
    37c0:	01c7c703          	lbu	a4,28(a5)
    37c4:	177d                	addi	a4,a4,-1
    37c6:	c31d                	beqz	a4,37ec <JTAG_IR+0xa6>
    37c8:	400117b7          	lui	a5,0x40011
    37cc:	c0078793          	addi	a5,a5,-1024 # 40010c00 <_eusrstack+0x20008c00>
    37d0:	6621                	lui	a2,0x8
    37d2:	6689                	lui	a3,0x2
    37d4:	a039                	j	37e2 <JTAG_IR+0x9c>
    37d6:	cbd0                	sw	a2,20(a5)
    37d8:	cbd4                	sw	a3,20(a5)
    37da:	cb94                	sw	a3,16(a5)
    37dc:	8105                	srli	a0,a0,0x1
    37de:	177d                	addi	a4,a4,-1
    37e0:	c711                	beqz	a4,37ec <JTAG_IR+0xa6>
    37e2:	00157593          	andi	a1,a0,1
    37e6:	d9e5                	beqz	a1,37d6 <JTAG_IR+0x90>
    37e8:	cb90                	sw	a2,16(a5)
    37ea:	b7fd                	j	37d8 <JTAG_IR+0x92>
    37ec:	200027b7          	lui	a5,0x20002
    37f0:	cd478793          	addi	a5,a5,-812 # 20001cd4 <DAP_Data>
    37f4:	01b7c703          	lbu	a4,27(a5)
    37f8:	0741                	addi	a4,a4,16
    37fa:	0706                	slli	a4,a4,0x1
    37fc:	97ba                	add	a5,a5,a4
    37fe:	0147d783          	lhu	a5,20(a5)
    3802:	cfbd                	beqz	a5,3880 <JTAG_IR+0x13a>
    3804:	8905                	andi	a0,a0,1
    3806:	c53d                	beqz	a0,3874 <JTAG_IR+0x12e>
    3808:	40011737          	lui	a4,0x40011
    380c:	66a1                	lui	a3,0x8
    380e:	c0d72823          	sw	a3,-1008(a4) # 40010c10 <_eusrstack+0x20008c10>
    3812:	40011737          	lui	a4,0x40011
    3816:	6689                	lui	a3,0x2
    3818:	c0d72a23          	sw	a3,-1004(a4) # 40010c14 <_eusrstack+0x20008c14>
    381c:	c0d72823          	sw	a3,-1008(a4)
    3820:	66a1                	lui	a3,0x8
    3822:	c0d72823          	sw	a3,-1008(a4)
    3826:	17fd                	addi	a5,a5,-1
    3828:	cb91                	beqz	a5,383c <JTAG_IR+0xf6>
    382a:	40011737          	lui	a4,0x40011
    382e:	c0070713          	addi	a4,a4,-1024 # 40010c00 <_eusrstack+0x20008c00>
    3832:	6689                	lui	a3,0x2
    3834:	cb54                	sw	a3,20(a4)
    3836:	cb14                	sw	a3,16(a4)
    3838:	17fd                	addi	a5,a5,-1
    383a:	ffed                	bnez	a5,3834 <JTAG_IR+0xee>
    383c:	400117b7          	lui	a5,0x40011
    3840:	6705                	lui	a4,0x1
    3842:	c0e7a823          	sw	a4,-1008(a5) # 40010c10 <_eusrstack+0x20008c10>
    3846:	6709                	lui	a4,0x2
    3848:	c0e7aa23          	sw	a4,-1004(a5)
    384c:	c0e7a823          	sw	a4,-1008(a5)
    3850:	400117b7          	lui	a5,0x40011
    3854:	6709                	lui	a4,0x2
    3856:	c0e7aa23          	sw	a4,-1004(a5) # 40010c14 <_eusrstack+0x20008c14>
    385a:	c0e7a823          	sw	a4,-1008(a5)
    385e:	6685                	lui	a3,0x1
    3860:	c0d7aa23          	sw	a3,-1004(a5)
    3864:	c0e7aa23          	sw	a4,-1004(a5)
    3868:	c0e7a823          	sw	a4,-1008(a5)
    386c:	6721                	lui	a4,0x8
    386e:	c0e7a823          	sw	a4,-1008(a5)
    3872:	8082                	ret
    3874:	40011737          	lui	a4,0x40011
    3878:	66a1                	lui	a3,0x8
    387a:	c0d72a23          	sw	a3,-1004(a4) # 40010c14 <_eusrstack+0x20008c14>
    387e:	bf51                	j	3812 <JTAG_IR+0xcc>
    3880:	400117b7          	lui	a5,0x40011
    3884:	6705                	lui	a4,0x1
    3886:	c0e7a823          	sw	a4,-1008(a5) # 40010c10 <_eusrstack+0x20008c10>
    388a:	8905                	andi	a0,a0,1
    388c:	cd11                	beqz	a0,38a8 <JTAG_IR+0x162>
    388e:	400117b7          	lui	a5,0x40011
    3892:	6721                	lui	a4,0x8
    3894:	c0e7a823          	sw	a4,-1008(a5) # 40010c10 <_eusrstack+0x20008c10>
    3898:	400117b7          	lui	a5,0x40011
    389c:	6709                	lui	a4,0x2
    389e:	c0e7aa23          	sw	a4,-1004(a5) # 40010c14 <_eusrstack+0x20008c14>
    38a2:	c0e7a823          	sw	a4,-1008(a5)
    38a6:	b76d                	j	3850 <JTAG_IR+0x10a>
    38a8:	400117b7          	lui	a5,0x40011
    38ac:	6721                	lui	a4,0x8
    38ae:	c0e7aa23          	sw	a4,-1004(a5) # 40010c14 <_eusrstack+0x20008c14>
    38b2:	b7dd                	j	3898 <JTAG_IR+0x152>
    38b4:	400117b7          	lui	a5,0x40011
    38b8:	6705                	lui	a4,0x1
    38ba:	c0e7a823          	sw	a4,-1008(a5) # 40010c10 <_eusrstack+0x20008c10>
    38be:	6709                	lui	a4,0x2
    38c0:	c0e7aa23          	sw	a4,-1004(a5)
    38c4:	200027b7          	lui	a5,0x20002
    38c8:	cd87a783          	lw	a5,-808(a5) # 20001cd8 <DAP_Data+0x4>
    38cc:	873e                	mv	a4,a5
    38ce:	177d                	addi	a4,a4,-1
    38d0:	ff7d                	bnez	a4,38ce <JTAG_IR+0x188>
    38d2:	40011737          	lui	a4,0x40011
    38d6:	6689                	lui	a3,0x2
    38d8:	c0d72823          	sw	a3,-1008(a4) # 40010c10 <_eusrstack+0x20008c10>
    38dc:	873e                	mv	a4,a5
    38de:	177d                	addi	a4,a4,-1
    38e0:	ff7d                	bnez	a4,38de <JTAG_IR+0x198>
    38e2:	40011737          	lui	a4,0x40011
    38e6:	6689                	lui	a3,0x2
    38e8:	c0d72a23          	sw	a3,-1004(a4) # 40010c14 <_eusrstack+0x20008c14>
    38ec:	873e                	mv	a4,a5
    38ee:	177d                	addi	a4,a4,-1
    38f0:	ff7d                	bnez	a4,38ee <JTAG_IR+0x1a8>
    38f2:	40011737          	lui	a4,0x40011
    38f6:	6689                	lui	a3,0x2
    38f8:	c0d72823          	sw	a3,-1008(a4) # 40010c10 <_eusrstack+0x20008c10>
    38fc:	873e                	mv	a4,a5
    38fe:	177d                	addi	a4,a4,-1
    3900:	ff7d                	bnez	a4,38fe <JTAG_IR+0x1b8>
    3902:	40011737          	lui	a4,0x40011
    3906:	6685                	lui	a3,0x1
    3908:	c0d72a23          	sw	a3,-1004(a4) # 40010c14 <_eusrstack+0x20008c14>
    390c:	6689                	lui	a3,0x2
    390e:	c0d72a23          	sw	a3,-1004(a4)
    3912:	873e                	mv	a4,a5
    3914:	177d                	addi	a4,a4,-1
    3916:	ff7d                	bnez	a4,3914 <JTAG_IR+0x1ce>
    3918:	40011737          	lui	a4,0x40011
    391c:	6689                	lui	a3,0x2
    391e:	c0d72823          	sw	a3,-1008(a4) # 40010c10 <_eusrstack+0x20008c10>
    3922:	873e                	mv	a4,a5
    3924:	177d                	addi	a4,a4,-1
    3926:	ff7d                	bnez	a4,3924 <JTAG_IR+0x1de>
    3928:	40011737          	lui	a4,0x40011
    392c:	6689                	lui	a3,0x2
    392e:	c0d72a23          	sw	a3,-1004(a4) # 40010c14 <_eusrstack+0x20008c14>
    3932:	873e                	mv	a4,a5
    3934:	177d                	addi	a4,a4,-1
    3936:	ff7d                	bnez	a4,3934 <JTAG_IR+0x1ee>
    3938:	40011737          	lui	a4,0x40011
    393c:	6689                	lui	a3,0x2
    393e:	c0d72823          	sw	a3,-1008(a4) # 40010c10 <_eusrstack+0x20008c10>
    3942:	873e                	mv	a4,a5
    3944:	177d                	addi	a4,a4,-1
    3946:	ff7d                	bnez	a4,3944 <JTAG_IR+0x1fe>
    3948:	40011737          	lui	a4,0x40011
    394c:	66a1                	lui	a3,0x8
    394e:	c0d72823          	sw	a3,-1008(a4) # 40010c10 <_eusrstack+0x20008c10>
    3952:	20002737          	lui	a4,0x20002
    3956:	cd470713          	addi	a4,a4,-812 # 20001cd4 <DAP_Data>
    395a:	01b74683          	lbu	a3,27(a4)
    395e:	06a1                	addi	a3,a3,8
    3960:	0686                	slli	a3,a3,0x1
    3962:	9736                	add	a4,a4,a3
    3964:	01475703          	lhu	a4,20(a4)
    3968:	c315                	beqz	a4,398c <JTAG_IR+0x246>
    396a:	40011637          	lui	a2,0x40011
    396e:	c0060613          	addi	a2,a2,-1024 # 40010c00 <_eusrstack+0x20008c00>
    3972:	6589                	lui	a1,0x2
    3974:	882e                	mv	a6,a1
    3976:	01062a23          	sw	a6,20(a2)
    397a:	86be                	mv	a3,a5
    397c:	16fd                	addi	a3,a3,-1
    397e:	fefd                	bnez	a3,397c <JTAG_IR+0x236>
    3980:	ca0c                	sw	a1,16(a2)
    3982:	86be                	mv	a3,a5
    3984:	16fd                	addi	a3,a3,-1
    3986:	fefd                	bnez	a3,3984 <JTAG_IR+0x23e>
    3988:	177d                	addi	a4,a4,-1
    398a:	f775                	bnez	a4,3976 <JTAG_IR+0x230>
    398c:	20002737          	lui	a4,0x20002
    3990:	cd470713          	addi	a4,a4,-812 # 20001cd4 <DAP_Data>
    3994:	01b74683          	lbu	a3,27(a4)
    3998:	9736                	add	a4,a4,a3
    399a:	01c74683          	lbu	a3,28(a4)
    399e:	16fd                	addi	a3,a3,-1
    39a0:	ce85                	beqz	a3,39d8 <JTAG_IR+0x292>
    39a2:	40011737          	lui	a4,0x40011
    39a6:	c0070713          	addi	a4,a4,-1024 # 40010c00 <_eusrstack+0x20008c00>
    39aa:	65a1                	lui	a1,0x8
    39ac:	6809                	lui	a6,0x2
    39ae:	88c2                	mv	a7,a6
    39b0:	a839                	j	39ce <JTAG_IR+0x288>
    39b2:	cb4c                	sw	a1,20(a4)
    39b4:	01172a23          	sw	a7,20(a4)
    39b8:	863e                	mv	a2,a5
    39ba:	167d                	addi	a2,a2,-1
    39bc:	fe7d                	bnez	a2,39ba <JTAG_IR+0x274>
    39be:	01072823          	sw	a6,16(a4)
    39c2:	863e                	mv	a2,a5
    39c4:	167d                	addi	a2,a2,-1
    39c6:	fe7d                	bnez	a2,39c4 <JTAG_IR+0x27e>
    39c8:	8105                	srli	a0,a0,0x1
    39ca:	16fd                	addi	a3,a3,-1
    39cc:	c691                	beqz	a3,39d8 <JTAG_IR+0x292>
    39ce:	00157613          	andi	a2,a0,1
    39d2:	d265                	beqz	a2,39b2 <JTAG_IR+0x26c>
    39d4:	cb0c                	sw	a1,16(a4)
    39d6:	bff9                	j	39b4 <JTAG_IR+0x26e>
    39d8:	200027b7          	lui	a5,0x20002
    39dc:	cd478793          	addi	a5,a5,-812 # 20001cd4 <DAP_Data>
    39e0:	01b7c703          	lbu	a4,27(a5)
    39e4:	0741                	addi	a4,a4,16
    39e6:	0706                	slli	a4,a4,0x1
    39e8:	97ba                	add	a5,a5,a4
    39ea:	0147d703          	lhu	a4,20(a5)
    39ee:	cb59                	beqz	a4,3a84 <JTAG_IR+0x33e>
    39f0:	8905                	andi	a0,a0,1
    39f2:	c159                	beqz	a0,3a78 <JTAG_IR+0x332>
    39f4:	400117b7          	lui	a5,0x40011
    39f8:	66a1                	lui	a3,0x8
    39fa:	c0d7a823          	sw	a3,-1008(a5) # 40010c10 <_eusrstack+0x20008c10>
    39fe:	400117b7          	lui	a5,0x40011
    3a02:	6689                	lui	a3,0x2
    3a04:	c0d7aa23          	sw	a3,-1004(a5) # 40010c14 <_eusrstack+0x20008c14>
    3a08:	200027b7          	lui	a5,0x20002
    3a0c:	cd87a783          	lw	a5,-808(a5) # 20001cd8 <DAP_Data+0x4>
    3a10:	86be                	mv	a3,a5
    3a12:	16fd                	addi	a3,a3,-1
    3a14:	fefd                	bnez	a3,3a12 <JTAG_IR+0x2cc>
    3a16:	400116b7          	lui	a3,0x40011
    3a1a:	6609                	lui	a2,0x2
    3a1c:	c0c6a823          	sw	a2,-1008(a3) # 40010c10 <_eusrstack+0x20008c10>
    3a20:	86be                	mv	a3,a5
    3a22:	16fd                	addi	a3,a3,-1
    3a24:	fefd                	bnez	a3,3a22 <JTAG_IR+0x2dc>
    3a26:	400116b7          	lui	a3,0x40011
    3a2a:	6621                	lui	a2,0x8
    3a2c:	c0c6a823          	sw	a2,-1008(a3) # 40010c10 <_eusrstack+0x20008c10>
    3a30:	c0068693          	addi	a3,a3,-1024
    3a34:	177d                	addi	a4,a4,-1
    3a36:	cf11                	beqz	a4,3a52 <JTAG_IR+0x30c>
    3a38:	8636                	mv	a2,a3
    3a3a:	6589                	lui	a1,0x2
    3a3c:	852e                	mv	a0,a1
    3a3e:	ca48                	sw	a0,20(a2)
    3a40:	86be                	mv	a3,a5
    3a42:	16fd                	addi	a3,a3,-1
    3a44:	fefd                	bnez	a3,3a42 <JTAG_IR+0x2fc>
    3a46:	ca0c                	sw	a1,16(a2)
    3a48:	86be                	mv	a3,a5
    3a4a:	16fd                	addi	a3,a3,-1
    3a4c:	fefd                	bnez	a3,3a4a <JTAG_IR+0x304>
    3a4e:	177d                	addi	a4,a4,-1
    3a50:	f77d                	bnez	a4,3a3e <JTAG_IR+0x2f8>
    3a52:	40011737          	lui	a4,0x40011
    3a56:	6685                	lui	a3,0x1
    3a58:	c0d72823          	sw	a3,-1008(a4) # 40010c10 <_eusrstack+0x20008c10>
    3a5c:	6689                	lui	a3,0x2
    3a5e:	c0d72a23          	sw	a3,-1004(a4)
    3a62:	873e                	mv	a4,a5
    3a64:	177d                	addi	a4,a4,-1
    3a66:	ff7d                	bnez	a4,3a64 <JTAG_IR+0x31e>
    3a68:	40011737          	lui	a4,0x40011
    3a6c:	6689                	lui	a3,0x2
    3a6e:	c0d72823          	sw	a3,-1008(a4) # 40010c10 <_eusrstack+0x20008c10>
    3a72:	17fd                	addi	a5,a5,-1
    3a74:	fffd                	bnez	a5,3a72 <JTAG_IR+0x32c>
    3a76:	a0b1                	j	3ac2 <JTAG_IR+0x37c>
    3a78:	400117b7          	lui	a5,0x40011
    3a7c:	66a1                	lui	a3,0x8
    3a7e:	c0d7aa23          	sw	a3,-1004(a5) # 40010c14 <_eusrstack+0x20008c14>
    3a82:	bfb5                	j	39fe <JTAG_IR+0x2b8>
    3a84:	400117b7          	lui	a5,0x40011
    3a88:	6705                	lui	a4,0x1
    3a8a:	c0e7a823          	sw	a4,-1008(a5) # 40010c10 <_eusrstack+0x20008c10>
    3a8e:	8905                	andi	a0,a0,1
    3a90:	c549                	beqz	a0,3b1a <JTAG_IR+0x3d4>
    3a92:	400117b7          	lui	a5,0x40011
    3a96:	6721                	lui	a4,0x8
    3a98:	c0e7a823          	sw	a4,-1008(a5) # 40010c10 <_eusrstack+0x20008c10>
    3a9c:	400117b7          	lui	a5,0x40011
    3aa0:	6709                	lui	a4,0x2
    3aa2:	c0e7aa23          	sw	a4,-1004(a5) # 40010c14 <_eusrstack+0x20008c14>
    3aa6:	200027b7          	lui	a5,0x20002
    3aaa:	cd87a783          	lw	a5,-808(a5) # 20001cd8 <DAP_Data+0x4>
    3aae:	873e                	mv	a4,a5
    3ab0:	177d                	addi	a4,a4,-1
    3ab2:	ff7d                	bnez	a4,3ab0 <JTAG_IR+0x36a>
    3ab4:	40011737          	lui	a4,0x40011
    3ab8:	6689                	lui	a3,0x2
    3aba:	c0d72823          	sw	a3,-1008(a4) # 40010c10 <_eusrstack+0x20008c10>
    3abe:	17fd                	addi	a5,a5,-1
    3ac0:	fffd                	bnez	a5,3abe <JTAG_IR+0x378>
    3ac2:	400117b7          	lui	a5,0x40011
    3ac6:	6709                	lui	a4,0x2
    3ac8:	c0e7aa23          	sw	a4,-1004(a5) # 40010c14 <_eusrstack+0x20008c14>
    3acc:	200027b7          	lui	a5,0x20002
    3ad0:	cd87a783          	lw	a5,-808(a5) # 20001cd8 <DAP_Data+0x4>
    3ad4:	873e                	mv	a4,a5
    3ad6:	177d                	addi	a4,a4,-1
    3ad8:	ff7d                	bnez	a4,3ad6 <JTAG_IR+0x390>
    3ada:	40011737          	lui	a4,0x40011
    3ade:	6689                	lui	a3,0x2
    3ae0:	c0d72823          	sw	a3,-1008(a4) # 40010c10 <_eusrstack+0x20008c10>
    3ae4:	873e                	mv	a4,a5
    3ae6:	177d                	addi	a4,a4,-1
    3ae8:	ff7d                	bnez	a4,3ae6 <JTAG_IR+0x3a0>
    3aea:	40011737          	lui	a4,0x40011
    3aee:	6685                	lui	a3,0x1
    3af0:	c0d72a23          	sw	a3,-1004(a4) # 40010c14 <_eusrstack+0x20008c14>
    3af4:	6689                	lui	a3,0x2
    3af6:	c0d72a23          	sw	a3,-1004(a4)
    3afa:	873e                	mv	a4,a5
    3afc:	177d                	addi	a4,a4,-1
    3afe:	ff7d                	bnez	a4,3afc <JTAG_IR+0x3b6>
    3b00:	40011737          	lui	a4,0x40011
    3b04:	6689                	lui	a3,0x2
    3b06:	c0d72823          	sw	a3,-1008(a4) # 40010c10 <_eusrstack+0x20008c10>
    3b0a:	17fd                	addi	a5,a5,-1
    3b0c:	fffd                	bnez	a5,3b0a <JTAG_IR+0x3c4>
    3b0e:	400117b7          	lui	a5,0x40011
    3b12:	6721                	lui	a4,0x8
    3b14:	c0e7a823          	sw	a4,-1008(a5) # 40010c10 <_eusrstack+0x20008c10>
    3b18:	8082                	ret
    3b1a:	400117b7          	lui	a5,0x40011
    3b1e:	6721                	lui	a4,0x8
    3b20:	c0e7aa23          	sw	a4,-1004(a5) # 40010c14 <_eusrstack+0x20008c14>
    3b24:	bfa5                	j	3a9c <JTAG_IR+0x356>

00003b26 <JTAG_Transfer>:
    3b26:	200027b7          	lui	a5,0x20002
    3b2a:	cd57c783          	lbu	a5,-811(a5) # 20001cd5 <DAP_Data+0x1>
    3b2e:	2c078b63          	beqz	a5,3e04 <JTAG_Transfer+0x2de>
    3b32:	400117b7          	lui	a5,0x40011
    3b36:	6685                	lui	a3,0x1
    3b38:	c0d7a823          	sw	a3,-1008(a5) # 40010c10 <_eusrstack+0x20008c10>
    3b3c:	6709                	lui	a4,0x2
    3b3e:	c0e7aa23          	sw	a4,-1004(a5)
    3b42:	c0e7a823          	sw	a4,-1008(a5)
    3b46:	c0d7aa23          	sw	a3,-1004(a5)
    3b4a:	c0e7aa23          	sw	a4,-1004(a5)
    3b4e:	c0e7a823          	sw	a4,-1008(a5)
    3b52:	c0e7aa23          	sw	a4,-1004(a5)
    3b56:	c0e7a823          	sw	a4,-1008(a5)
    3b5a:	200027b7          	lui	a5,0x20002
    3b5e:	cef7c783          	lbu	a5,-785(a5) # 20001cef <DAP_Data+0x1b>
    3b62:	cb91                	beqz	a5,3b76 <JTAG_Transfer+0x50>
    3b64:	40011737          	lui	a4,0x40011
    3b68:	c0070713          	addi	a4,a4,-1024 # 40010c00 <_eusrstack+0x20008c00>
    3b6c:	6689                	lui	a3,0x2
    3b6e:	cb54                	sw	a3,20(a4)
    3b70:	cb14                	sw	a3,16(a4)
    3b72:	17fd                	addi	a5,a5,-1
    3b74:	ffed                	bnez	a5,3b6e <JTAG_Transfer+0x48>
    3b76:	00155793          	srli	a5,a0,0x1
    3b7a:	8b85                	andi	a5,a5,1
    3b7c:	c3f5                	beqz	a5,3c60 <JTAG_Transfer+0x13a>
    3b7e:	400117b7          	lui	a5,0x40011
    3b82:	6721                	lui	a4,0x8
    3b84:	c0e7a823          	sw	a4,-1008(a5) # 40010c10 <_eusrstack+0x20008c10>
    3b88:	40011637          	lui	a2,0x40011
    3b8c:	6709                	lui	a4,0x2
    3b8e:	c0e62a23          	sw	a4,-1004(a2) # 40010c14 <_eusrstack+0x20008c14>
    3b92:	c0862783          	lw	a5,-1016(a2)
    3b96:	c0e62823          	sw	a4,-1008(a2)
    3b9a:	c0060613          	addi	a2,a2,-1024
    3b9e:	83b5                	srli	a5,a5,0xd
    3ba0:	0027f693          	andi	a3,a5,2
    3ba4:	00255793          	srli	a5,a0,0x2
    3ba8:	8b85                	andi	a5,a5,1
    3baa:	c3e9                	beqz	a5,3c6c <JTAG_Transfer+0x146>
    3bac:	6721                	lui	a4,0x8
    3bae:	ca18                	sw	a4,16(a2)
    3bb0:	400117b7          	lui	a5,0x40011
    3bb4:	6609                	lui	a2,0x2
    3bb6:	c0c7aa23          	sw	a2,-1004(a5) # 40010c14 <_eusrstack+0x20008c14>
    3bba:	c087a703          	lw	a4,-1016(a5)
    3bbe:	8339                	srli	a4,a4,0xe
    3bc0:	8b05                	andi	a4,a4,1
    3bc2:	c0c7a823          	sw	a2,-1008(a5)
    3bc6:	00355793          	srli	a5,a0,0x3
    3bca:	8b85                	andi	a5,a5,1
    3bcc:	c7d5                	beqz	a5,3c78 <JTAG_Transfer+0x152>
    3bce:	400117b7          	lui	a5,0x40011
    3bd2:	6621                	lui	a2,0x8
    3bd4:	c0c7a823          	sw	a2,-1008(a5) # 40010c10 <_eusrstack+0x20008c10>
    3bd8:	40011637          	lui	a2,0x40011
    3bdc:	6809                	lui	a6,0x2
    3bde:	c1062a23          	sw	a6,-1004(a2) # 40010c14 <_eusrstack+0x20008c14>
    3be2:	c0862783          	lw	a5,-1016(a2)
    3be6:	c1062823          	sw	a6,-1008(a2)
    3bea:	c0060613          	addi	a2,a2,-1024
    3bee:	83b1                	srli	a5,a5,0xc
    3bf0:	8b91                	andi	a5,a5,4
    3bf2:	8fd5                	or	a5,a5,a3
    3bf4:	8f5d                	or	a4,a4,a5
    3bf6:	4785                	li	a5,1
    3bf8:	08f70663          	beq	a4,a5,3c84 <JTAG_Transfer+0x15e>
    3bfc:	6685                	lui	a3,0x1
    3bfe:	ca14                	sw	a3,16(a2)
    3c00:	6689                	lui	a3,0x2
    3c02:	ca54                	sw	a3,20(a2)
    3c04:	ca14                	sw	a3,16(a2)
    3c06:	400117b7          	lui	a5,0x40011
    3c0a:	6689                	lui	a3,0x2
    3c0c:	c0d7aa23          	sw	a3,-1004(a5) # 40010c14 <_eusrstack+0x20008c14>
    3c10:	c0d7a823          	sw	a3,-1008(a5)
    3c14:	6605                	lui	a2,0x1
    3c16:	c0c7aa23          	sw	a2,-1004(a5)
    3c1a:	c0d7aa23          	sw	a3,-1004(a5)
    3c1e:	c0d7a823          	sw	a3,-1008(a5)
    3c22:	66a1                	lui	a3,0x8
    3c24:	c0d7a823          	sw	a3,-1008(a5)
    3c28:	08057513          	andi	a0,a0,128
    3c2c:	c509                	beqz	a0,3c36 <JTAG_Transfer+0x110>
    3c2e:	200027b7          	lui	a5,0x20002
    3c32:	cc07ae23          	sw	zero,-804(a5) # 20001cdc <DAP_Data+0x8>
    3c36:	200027b7          	lui	a5,0x20002
    3c3a:	ce07c683          	lbu	a3,-800(a5) # 20001ce0 <DAP_Data+0xc>
    3c3e:	fff68793          	addi	a5,a3,-1 # 7fff <_data_lma+0x2def>
    3c42:	ce81                	beqz	a3,3c5a <JTAG_Transfer+0x134>
    3c44:	400116b7          	lui	a3,0x40011
    3c48:	c0068693          	addi	a3,a3,-1024 # 40010c00 <_eusrstack+0x20008c00>
    3c4c:	6609                	lui	a2,0x2
    3c4e:	55fd                	li	a1,-1
    3c50:	cad0                	sw	a2,20(a3)
    3c52:	ca90                	sw	a2,16(a3)
    3c54:	17fd                	addi	a5,a5,-1
    3c56:	feb79de3          	bne	a5,a1,3c50 <JTAG_Transfer+0x12a>
    3c5a:	0ff77513          	andi	a0,a4,255
    3c5e:	8082                	ret
    3c60:	400117b7          	lui	a5,0x40011
    3c64:	6721                	lui	a4,0x8
    3c66:	c0e7aa23          	sw	a4,-1004(a5) # 40010c14 <_eusrstack+0x20008c14>
    3c6a:	bf39                	j	3b88 <JTAG_Transfer+0x62>
    3c6c:	400117b7          	lui	a5,0x40011
    3c70:	6721                	lui	a4,0x8
    3c72:	c0e7aa23          	sw	a4,-1004(a5) # 40010c14 <_eusrstack+0x20008c14>
    3c76:	bf2d                	j	3bb0 <JTAG_Transfer+0x8a>
    3c78:	400117b7          	lui	a5,0x40011
    3c7c:	6621                	lui	a2,0x8
    3c7e:	c0c7aa23          	sw	a2,-1004(a5) # 40010c14 <_eusrstack+0x20008c14>
    3c82:	bf99                	j	3bd8 <JTAG_Transfer+0xb2>
    3c84:	00257793          	andi	a5,a0,2
    3c88:	cbc5                	beqz	a5,3d38 <JTAG_Transfer+0x212>
    3c8a:	467d                	li	a2,31
    3c8c:	4801                	li	a6,0
    3c8e:	400116b7          	lui	a3,0x40011
    3c92:	c0068693          	addi	a3,a3,-1024 # 40010c00 <_eusrstack+0x20008c00>
    3c96:	6889                	lui	a7,0x2
    3c98:	0116aa23          	sw	a7,20(a3)
    3c9c:	469c                	lw	a5,8(a3)
    3c9e:	0116a823          	sw	a7,16(a3)
    3ca2:	83b9                	srli	a5,a5,0xe
    3ca4:	07fe                	slli	a5,a5,0x1f
    3ca6:	0107e7b3          	or	a5,a5,a6
    3caa:	0017d813          	srli	a6,a5,0x1
    3cae:	167d                	addi	a2,a2,-1
    3cb0:	f665                	bnez	a2,3c98 <JTAG_Transfer+0x172>
    3cb2:	200027b7          	lui	a5,0x20002
    3cb6:	cd478793          	addi	a5,a5,-812 # 20001cd4 <DAP_Data>
    3cba:	01a7c683          	lbu	a3,26(a5)
    3cbe:	01b7c783          	lbu	a5,27(a5)
    3cc2:	8e9d                	sub	a3,a3,a5
    3cc4:	4785                	li	a5,1
    3cc6:	04f68a63          	beq	a3,a5,3d1a <JTAG_Transfer+0x1f4>
    3cca:	40011637          	lui	a2,0x40011
    3cce:	6889                	lui	a7,0x2
    3cd0:	c1162a23          	sw	a7,-1004(a2) # 40010c14 <_eusrstack+0x20008c14>
    3cd4:	c0862783          	lw	a5,-1016(a2)
    3cd8:	83b9                	srli	a5,a5,0xe
    3cda:	8b85                	andi	a5,a5,1
    3cdc:	c1162823          	sw	a7,-1008(a2)
    3ce0:	16f9                	addi	a3,a3,-2
    3ce2:	ca99                	beqz	a3,3cf8 <JTAG_Transfer+0x1d2>
    3ce4:	40011637          	lui	a2,0x40011
    3ce8:	c0060613          	addi	a2,a2,-1024 # 40010c00 <_eusrstack+0x20008c00>
    3cec:	01162a23          	sw	a7,20(a2)
    3cf0:	01162823          	sw	a7,16(a2)
    3cf4:	16fd                	addi	a3,a3,-1
    3cf6:	fafd                	bnez	a3,3cec <JTAG_Transfer+0x1c6>
    3cf8:	400116b7          	lui	a3,0x40011
    3cfc:	6605                	lui	a2,0x1
    3cfe:	c0c6a823          	sw	a2,-1008(a3) # 40010c10 <_eusrstack+0x20008c10>
    3d02:	6609                	lui	a2,0x2
    3d04:	c0c6aa23          	sw	a2,-1004(a3)
    3d08:	c0c6a823          	sw	a2,-1008(a3)
    3d0c:	ee058de3          	beqz	a1,3c06 <JTAG_Transfer+0xe0>
    3d10:	07fe                	slli	a5,a5,0x1f
    3d12:	0107e7b3          	or	a5,a5,a6
    3d16:	c19c                	sw	a5,0(a1)
    3d18:	b5fd                	j	3c06 <JTAG_Transfer+0xe0>
    3d1a:	400116b7          	lui	a3,0x40011
    3d1e:	6785                	lui	a5,0x1
    3d20:	c0f6a823          	sw	a5,-1008(a3) # 40010c10 <_eusrstack+0x20008c10>
    3d24:	6609                	lui	a2,0x2
    3d26:	c0c6aa23          	sw	a2,-1004(a3)
    3d2a:	c086a783          	lw	a5,-1016(a3)
    3d2e:	83b9                	srli	a5,a5,0xe
    3d30:	8b85                	andi	a5,a5,1
    3d32:	c0c6a823          	sw	a2,-1008(a3)
    3d36:	bfd9                	j	3d0c <JTAG_Transfer+0x1e6>
    3d38:	4194                	lw	a3,0(a1)
    3d3a:	467d                	li	a2,31
    3d3c:	400117b7          	lui	a5,0x40011
    3d40:	c0078793          	addi	a5,a5,-1024 # 40010c00 <_eusrstack+0x20008c00>
    3d44:	6821                	lui	a6,0x8
    3d46:	6589                	lui	a1,0x2
    3d48:	a801                	j	3d58 <JTAG_Transfer+0x232>
    3d4a:	0107a823          	sw	a6,16(a5)
    3d4e:	cbcc                	sw	a1,20(a5)
    3d50:	cb8c                	sw	a1,16(a5)
    3d52:	8285                	srli	a3,a3,0x1
    3d54:	167d                	addi	a2,a2,-1
    3d56:	ca01                	beqz	a2,3d66 <JTAG_Transfer+0x240>
    3d58:	0016f893          	andi	a7,a3,1
    3d5c:	fe0897e3          	bnez	a7,3d4a <JTAG_Transfer+0x224>
    3d60:	0107aa23          	sw	a6,20(a5)
    3d64:	b7ed                	j	3d4e <JTAG_Transfer+0x228>
    3d66:	20002637          	lui	a2,0x20002
    3d6a:	cd460613          	addi	a2,a2,-812 # 20001cd4 <DAP_Data>
    3d6e:	01a64783          	lbu	a5,26(a2)
    3d72:	01b64603          	lbu	a2,27(a2)
    3d76:	8f91                	sub	a5,a5,a2
    3d78:	4605                	li	a2,1
    3d7a:	04c78b63          	beq	a5,a2,3dd0 <JTAG_Transfer+0x2aa>
    3d7e:	8a85                	andi	a3,a3,1
    3d80:	c2b1                	beqz	a3,3dc4 <JTAG_Transfer+0x29e>
    3d82:	400116b7          	lui	a3,0x40011
    3d86:	6621                	lui	a2,0x8
    3d88:	c0c6a823          	sw	a2,-1008(a3) # 40010c10 <_eusrstack+0x20008c10>
    3d8c:	400116b7          	lui	a3,0x40011
    3d90:	6609                	lui	a2,0x2
    3d92:	c0c6aa23          	sw	a2,-1004(a3) # 40010c14 <_eusrstack+0x20008c14>
    3d96:	c0c6a823          	sw	a2,-1008(a3)
    3d9a:	17f9                	addi	a5,a5,-2
    3d9c:	cb89                	beqz	a5,3dae <JTAG_Transfer+0x288>
    3d9e:	400116b7          	lui	a3,0x40011
    3da2:	c0068693          	addi	a3,a3,-1024 # 40010c00 <_eusrstack+0x20008c00>
    3da6:	cad0                	sw	a2,20(a3)
    3da8:	ca90                	sw	a2,16(a3)
    3daa:	17fd                	addi	a5,a5,-1
    3dac:	ffed                	bnez	a5,3da6 <JTAG_Transfer+0x280>
    3dae:	400117b7          	lui	a5,0x40011
    3db2:	6685                	lui	a3,0x1
    3db4:	c0d7a823          	sw	a3,-1008(a5) # 40010c10 <_eusrstack+0x20008c10>
    3db8:	6689                	lui	a3,0x2
    3dba:	c0d7aa23          	sw	a3,-1004(a5)
    3dbe:	c0d7a823          	sw	a3,-1008(a5)
    3dc2:	b591                	j	3c06 <JTAG_Transfer+0xe0>
    3dc4:	400116b7          	lui	a3,0x40011
    3dc8:	6621                	lui	a2,0x8
    3dca:	c0c6aa23          	sw	a2,-1004(a3) # 40010c14 <_eusrstack+0x20008c14>
    3dce:	bf7d                	j	3d8c <JTAG_Transfer+0x266>
    3dd0:	400117b7          	lui	a5,0x40011
    3dd4:	6605                	lui	a2,0x1
    3dd6:	c0c7a823          	sw	a2,-1008(a5) # 40010c10 <_eusrstack+0x20008c10>
    3dda:	8a85                	andi	a3,a3,1
    3ddc:	ce91                	beqz	a3,3df8 <JTAG_Transfer+0x2d2>
    3dde:	400117b7          	lui	a5,0x40011
    3de2:	66a1                	lui	a3,0x8
    3de4:	c0d7a823          	sw	a3,-1008(a5) # 40010c10 <_eusrstack+0x20008c10>
    3de8:	400117b7          	lui	a5,0x40011
    3dec:	6689                	lui	a3,0x2
    3dee:	c0d7aa23          	sw	a3,-1004(a5) # 40010c14 <_eusrstack+0x20008c14>
    3df2:	c0d7a823          	sw	a3,-1008(a5)
    3df6:	bd01                	j	3c06 <JTAG_Transfer+0xe0>
    3df8:	400117b7          	lui	a5,0x40011
    3dfc:	66a1                	lui	a3,0x8
    3dfe:	c0d7aa23          	sw	a3,-1004(a5) # 40010c14 <_eusrstack+0x20008c14>
    3e02:	b7dd                	j	3de8 <JTAG_Transfer+0x2c2>
    3e04:	400117b7          	lui	a5,0x40011
    3e08:	6705                	lui	a4,0x1
    3e0a:	c0e7a823          	sw	a4,-1008(a5) # 40010c10 <_eusrstack+0x20008c10>
    3e0e:	6709                	lui	a4,0x2
    3e10:	c0e7aa23          	sw	a4,-1004(a5)
    3e14:	200027b7          	lui	a5,0x20002
    3e18:	cd87a783          	lw	a5,-808(a5) # 20001cd8 <DAP_Data+0x4>
    3e1c:	873e                	mv	a4,a5
    3e1e:	177d                	addi	a4,a4,-1
    3e20:	ff7d                	bnez	a4,3e1e <JTAG_Transfer+0x2f8>
    3e22:	40011737          	lui	a4,0x40011
    3e26:	6689                	lui	a3,0x2
    3e28:	c0d72823          	sw	a3,-1008(a4) # 40010c10 <_eusrstack+0x20008c10>
    3e2c:	873e                	mv	a4,a5
    3e2e:	177d                	addi	a4,a4,-1
    3e30:	ff7d                	bnez	a4,3e2e <JTAG_Transfer+0x308>
    3e32:	40011737          	lui	a4,0x40011
    3e36:	6685                	lui	a3,0x1
    3e38:	c0d72a23          	sw	a3,-1004(a4) # 40010c14 <_eusrstack+0x20008c14>
    3e3c:	6689                	lui	a3,0x2
    3e3e:	c0d72a23          	sw	a3,-1004(a4)
    3e42:	873e                	mv	a4,a5
    3e44:	177d                	addi	a4,a4,-1
    3e46:	ff7d                	bnez	a4,3e44 <JTAG_Transfer+0x31e>
    3e48:	40011737          	lui	a4,0x40011
    3e4c:	6689                	lui	a3,0x2
    3e4e:	c0d72823          	sw	a3,-1008(a4) # 40010c10 <_eusrstack+0x20008c10>
    3e52:	873e                	mv	a4,a5
    3e54:	177d                	addi	a4,a4,-1
    3e56:	ff7d                	bnez	a4,3e54 <JTAG_Transfer+0x32e>
    3e58:	40011737          	lui	a4,0x40011
    3e5c:	6689                	lui	a3,0x2
    3e5e:	c0d72a23          	sw	a3,-1004(a4) # 40010c14 <_eusrstack+0x20008c14>
    3e62:	873e                	mv	a4,a5
    3e64:	177d                	addi	a4,a4,-1
    3e66:	ff7d                	bnez	a4,3e64 <JTAG_Transfer+0x33e>
    3e68:	40011737          	lui	a4,0x40011
    3e6c:	6689                	lui	a3,0x2
    3e6e:	c0d72823          	sw	a3,-1008(a4) # 40010c10 <_eusrstack+0x20008c10>
    3e72:	873e                	mv	a4,a5
    3e74:	177d                	addi	a4,a4,-1
    3e76:	ff7d                	bnez	a4,3e74 <JTAG_Transfer+0x34e>
    3e78:	20002737          	lui	a4,0x20002
    3e7c:	cef74703          	lbu	a4,-785(a4) # 20001cef <DAP_Data+0x1b>
    3e80:	c31d                	beqz	a4,3ea6 <JTAG_Transfer+0x380>
    3e82:	40011637          	lui	a2,0x40011
    3e86:	c0060613          	addi	a2,a2,-1024 # 40010c00 <_eusrstack+0x20008c00>
    3e8a:	6809                	lui	a6,0x2
    3e8c:	88c2                	mv	a7,a6
    3e8e:	01162a23          	sw	a7,20(a2)
    3e92:	86be                	mv	a3,a5
    3e94:	16fd                	addi	a3,a3,-1
    3e96:	fefd                	bnez	a3,3e94 <JTAG_Transfer+0x36e>
    3e98:	01062823          	sw	a6,16(a2)
    3e9c:	86be                	mv	a3,a5
    3e9e:	16fd                	addi	a3,a3,-1
    3ea0:	fefd                	bnez	a3,3e9e <JTAG_Transfer+0x378>
    3ea2:	177d                	addi	a4,a4,-1
    3ea4:	f76d                	bnez	a4,3e8e <JTAG_Transfer+0x368>
    3ea6:	00155793          	srli	a5,a0,0x1
    3eaa:	8b85                	andi	a5,a5,1
    3eac:	16078f63          	beqz	a5,402a <JTAG_Transfer+0x504>
    3eb0:	400117b7          	lui	a5,0x40011
    3eb4:	6721                	lui	a4,0x8
    3eb6:	c0e7a823          	sw	a4,-1008(a5) # 40010c10 <_eusrstack+0x20008c10>
    3eba:	400117b7          	lui	a5,0x40011
    3ebe:	6709                	lui	a4,0x2
    3ec0:	c0e7aa23          	sw	a4,-1004(a5) # 40010c14 <_eusrstack+0x20008c14>
    3ec4:	200027b7          	lui	a5,0x20002
    3ec8:	cd87a783          	lw	a5,-808(a5) # 20001cd8 <DAP_Data+0x4>
    3ecc:	873e                	mv	a4,a5
    3ece:	177d                	addi	a4,a4,-1
    3ed0:	ff7d                	bnez	a4,3ece <JTAG_Transfer+0x3a8>
    3ed2:	400116b7          	lui	a3,0x40011
    3ed6:	c086a703          	lw	a4,-1016(a3) # 40010c08 <_eusrstack+0x20008c08>
    3eda:	8339                	srli	a4,a4,0xe
    3edc:	8b05                	andi	a4,a4,1
    3ede:	6609                	lui	a2,0x2
    3ee0:	c0c6a823          	sw	a2,-1008(a3)
    3ee4:	86be                	mv	a3,a5
    3ee6:	16fd                	addi	a3,a3,-1
    3ee8:	fefd                	bnez	a3,3ee6 <JTAG_Transfer+0x3c0>
    3eea:	00171813          	slli	a6,a4,0x1
    3eee:	00255713          	srli	a4,a0,0x2
    3ef2:	8b05                	andi	a4,a4,1
    3ef4:	14070163          	beqz	a4,4036 <JTAG_Transfer+0x510>
    3ef8:	40011737          	lui	a4,0x40011
    3efc:	66a1                	lui	a3,0x8
    3efe:	c0d72823          	sw	a3,-1008(a4) # 40010c10 <_eusrstack+0x20008c10>
    3f02:	40011737          	lui	a4,0x40011
    3f06:	6689                	lui	a3,0x2
    3f08:	c0d72a23          	sw	a3,-1004(a4) # 40010c14 <_eusrstack+0x20008c14>
    3f0c:	873e                	mv	a4,a5
    3f0e:	177d                	addi	a4,a4,-1
    3f10:	ff7d                	bnez	a4,3f0e <JTAG_Transfer+0x3e8>
    3f12:	40011737          	lui	a4,0x40011
    3f16:	c0872603          	lw	a2,-1016(a4) # 40010c08 <_eusrstack+0x20008c08>
    3f1a:	8239                	srli	a2,a2,0xe
    3f1c:	8a05                	andi	a2,a2,1
    3f1e:	6689                	lui	a3,0x2
    3f20:	c0d72823          	sw	a3,-1008(a4)
    3f24:	873e                	mv	a4,a5
    3f26:	177d                	addi	a4,a4,-1
    3f28:	ff7d                	bnez	a4,3f26 <JTAG_Transfer+0x400>
    3f2a:	00355713          	srli	a4,a0,0x3
    3f2e:	8b05                	andi	a4,a4,1
    3f30:	10070963          	beqz	a4,4042 <JTAG_Transfer+0x51c>
    3f34:	40011737          	lui	a4,0x40011
    3f38:	66a1                	lui	a3,0x8
    3f3a:	c0d72823          	sw	a3,-1008(a4) # 40010c10 <_eusrstack+0x20008c10>
    3f3e:	40011737          	lui	a4,0x40011
    3f42:	6689                	lui	a3,0x2
    3f44:	c0d72a23          	sw	a3,-1004(a4) # 40010c14 <_eusrstack+0x20008c14>
    3f48:	873e                	mv	a4,a5
    3f4a:	177d                	addi	a4,a4,-1
    3f4c:	ff7d                	bnez	a4,3f4a <JTAG_Transfer+0x424>
    3f4e:	400116b7          	lui	a3,0x40011
    3f52:	c086a703          	lw	a4,-1016(a3) # 40010c08 <_eusrstack+0x20008c08>
    3f56:	8339                	srli	a4,a4,0xe
    3f58:	8b05                	andi	a4,a4,1
    3f5a:	6889                	lui	a7,0x2
    3f5c:	c116a823          	sw	a7,-1008(a3)
    3f60:	86be                	mv	a3,a5
    3f62:	16fd                	addi	a3,a3,-1
    3f64:	fefd                	bnez	a3,3f62 <JTAG_Transfer+0x43c>
    3f66:	070a                	slli	a4,a4,0x2
    3f68:	01076733          	or	a4,a4,a6
    3f6c:	8e59                	or	a2,a2,a4
    3f6e:	4705                	li	a4,1
    3f70:	0ce60f63          	beq	a2,a4,404e <JTAG_Transfer+0x528>
    3f74:	40011737          	lui	a4,0x40011
    3f78:	6685                	lui	a3,0x1
    3f7a:	c0d72823          	sw	a3,-1008(a4) # 40010c10 <_eusrstack+0x20008c10>
    3f7e:	6689                	lui	a3,0x2
    3f80:	c0d72a23          	sw	a3,-1004(a4)
    3f84:	873e                	mv	a4,a5
    3f86:	177d                	addi	a4,a4,-1
    3f88:	ff7d                	bnez	a4,3f86 <JTAG_Transfer+0x460>
    3f8a:	40011737          	lui	a4,0x40011
    3f8e:	6689                	lui	a3,0x2
    3f90:	c0d72823          	sw	a3,-1008(a4) # 40010c10 <_eusrstack+0x20008c10>
    3f94:	17fd                	addi	a5,a5,-1
    3f96:	fffd                	bnez	a5,3f94 <JTAG_Transfer+0x46e>
    3f98:	400117b7          	lui	a5,0x40011
    3f9c:	6709                	lui	a4,0x2
    3f9e:	c0e7aa23          	sw	a4,-1004(a5) # 40010c14 <_eusrstack+0x20008c14>
    3fa2:	200027b7          	lui	a5,0x20002
    3fa6:	cd87a783          	lw	a5,-808(a5) # 20001cd8 <DAP_Data+0x4>
    3faa:	873e                	mv	a4,a5
    3fac:	177d                	addi	a4,a4,-1
    3fae:	ff7d                	bnez	a4,3fac <JTAG_Transfer+0x486>
    3fb0:	40011737          	lui	a4,0x40011
    3fb4:	6689                	lui	a3,0x2
    3fb6:	c0d72823          	sw	a3,-1008(a4) # 40010c10 <_eusrstack+0x20008c10>
    3fba:	873e                	mv	a4,a5
    3fbc:	177d                	addi	a4,a4,-1
    3fbe:	ff7d                	bnez	a4,3fbc <JTAG_Transfer+0x496>
    3fc0:	40011737          	lui	a4,0x40011
    3fc4:	6685                	lui	a3,0x1
    3fc6:	c0d72a23          	sw	a3,-1004(a4) # 40010c14 <_eusrstack+0x20008c14>
    3fca:	6689                	lui	a3,0x2
    3fcc:	c0d72a23          	sw	a3,-1004(a4)
    3fd0:	873e                	mv	a4,a5
    3fd2:	177d                	addi	a4,a4,-1
    3fd4:	ff7d                	bnez	a4,3fd2 <JTAG_Transfer+0x4ac>
    3fd6:	40011737          	lui	a4,0x40011
    3fda:	6689                	lui	a3,0x2
    3fdc:	c0d72823          	sw	a3,-1008(a4) # 40010c10 <_eusrstack+0x20008c10>
    3fe0:	873e                	mv	a4,a5
    3fe2:	177d                	addi	a4,a4,-1
    3fe4:	ff7d                	bnez	a4,3fe2 <JTAG_Transfer+0x4bc>
    3fe6:	40011737          	lui	a4,0x40011
    3fea:	66a1                	lui	a3,0x8
    3fec:	c0d72823          	sw	a3,-1008(a4) # 40010c10 <_eusrstack+0x20008c10>
    3ff0:	08057513          	andi	a0,a0,128
    3ff4:	c509                	beqz	a0,3ffe <JTAG_Transfer+0x4d8>
    3ff6:	20002737          	lui	a4,0x20002
    3ffa:	cc072e23          	sw	zero,-804(a4) # 20001cdc <DAP_Data+0x8>
    3ffe:	20002737          	lui	a4,0x20002
    4002:	ce074683          	lbu	a3,-800(a4) # 20001ce0 <DAP_Data+0xc>
    4006:	587d                	li	a6,-1
    4008:	40011537          	lui	a0,0x40011
    400c:	6589                	lui	a1,0x2
    400e:	16fd                	addi	a3,a3,-1
    4010:	29068063          	beq	a3,a6,4290 <JTAG_Transfer+0x76a>
    4014:	c0b52a23          	sw	a1,-1004(a0) # 40010c14 <_eusrstack+0x20008c14>
    4018:	873e                	mv	a4,a5
    401a:	177d                	addi	a4,a4,-1
    401c:	ff7d                	bnez	a4,401a <JTAG_Transfer+0x4f4>
    401e:	c0b52823          	sw	a1,-1008(a0)
    4022:	873e                	mv	a4,a5
    4024:	177d                	addi	a4,a4,-1
    4026:	ff7d                	bnez	a4,4024 <JTAG_Transfer+0x4fe>
    4028:	b7dd                	j	400e <JTAG_Transfer+0x4e8>
    402a:	400117b7          	lui	a5,0x40011
    402e:	6721                	lui	a4,0x8
    4030:	c0e7aa23          	sw	a4,-1004(a5) # 40010c14 <_eusrstack+0x20008c14>
    4034:	b559                	j	3eba <JTAG_Transfer+0x394>
    4036:	40011737          	lui	a4,0x40011
    403a:	66a1                	lui	a3,0x8
    403c:	c0d72a23          	sw	a3,-1004(a4) # 40010c14 <_eusrstack+0x20008c14>
    4040:	b5c9                	j	3f02 <JTAG_Transfer+0x3dc>
    4042:	40011737          	lui	a4,0x40011
    4046:	66a1                	lui	a3,0x8
    4048:	c0d72a23          	sw	a3,-1004(a4) # 40010c14 <_eusrstack+0x20008c14>
    404c:	bdcd                	j	3f3e <JTAG_Transfer+0x418>
    404e:	00257713          	andi	a4,a0,2
    4052:	10070963          	beqz	a4,4164 <JTAG_Transfer+0x63e>
    4056:	437d                	li	t1,31
    4058:	400118b7          	lui	a7,0x40011
    405c:	c0088893          	addi	a7,a7,-1024 # 40010c00 <_eusrstack+0x20008c00>
    4060:	6e09                	lui	t3,0x2
    4062:	8ef2                	mv	t4,t3
    4064:	01d8aa23          	sw	t4,20(a7)
    4068:	873e                	mv	a4,a5
    406a:	177d                	addi	a4,a4,-1
    406c:	ff7d                	bnez	a4,406a <JTAG_Transfer+0x544>
    406e:	0088a703          	lw	a4,8(a7)
    4072:	8339                	srli	a4,a4,0xe
    4074:	8b05                	andi	a4,a4,1
    4076:	01c8a823          	sw	t3,16(a7)
    407a:	883e                	mv	a6,a5
    407c:	187d                	addi	a6,a6,-1
    407e:	fe081fe3          	bnez	a6,407c <JTAG_Transfer+0x556>
    4082:	077e                	slli	a4,a4,0x1f
    4084:	8f55                	or	a4,a4,a3
    4086:	00175693          	srli	a3,a4,0x1
    408a:	137d                	addi	t1,t1,-1
    408c:	fc031ce3          	bnez	t1,4064 <JTAG_Transfer+0x53e>
    4090:	20002737          	lui	a4,0x20002
    4094:	cd470713          	addi	a4,a4,-812 # 20001cd4 <DAP_Data>
    4098:	01a74883          	lbu	a7,26(a4)
    409c:	01b74703          	lbu	a4,27(a4)
    40a0:	40e888b3          	sub	a7,a7,a4
    40a4:	4705                	li	a4,1
    40a6:	08e88363          	beq	a7,a4,412c <JTAG_Transfer+0x606>
    40aa:	40011737          	lui	a4,0x40011
    40ae:	6809                	lui	a6,0x2
    40b0:	c1072a23          	sw	a6,-1004(a4) # 40010c14 <_eusrstack+0x20008c14>
    40b4:	873e                	mv	a4,a5
    40b6:	177d                	addi	a4,a4,-1
    40b8:	ff7d                	bnez	a4,40b6 <JTAG_Transfer+0x590>
    40ba:	40011837          	lui	a6,0x40011
    40be:	c0882703          	lw	a4,-1016(a6) # 40010c08 <_eusrstack+0x20008c08>
    40c2:	8339                	srli	a4,a4,0xe
    40c4:	8b05                	andi	a4,a4,1
    40c6:	6309                	lui	t1,0x2
    40c8:	c0682823          	sw	t1,-1008(a6)
    40cc:	883e                	mv	a6,a5
    40ce:	187d                	addi	a6,a6,-1
    40d0:	fe081fe3          	bnez	a6,40ce <JTAG_Transfer+0x5a8>
    40d4:	18f9                	addi	a7,a7,-2
    40d6:	02088763          	beqz	a7,4104 <JTAG_Transfer+0x5de>
    40da:	40011337          	lui	t1,0x40011
    40de:	c0030313          	addi	t1,t1,-1024 # 40010c00 <_eusrstack+0x20008c00>
    40e2:	6e09                	lui	t3,0x2
    40e4:	8ef2                	mv	t4,t3
    40e6:	01d32a23          	sw	t4,20(t1)
    40ea:	883e                	mv	a6,a5
    40ec:	187d                	addi	a6,a6,-1
    40ee:	fe081fe3          	bnez	a6,40ec <JTAG_Transfer+0x5c6>
    40f2:	01c32823          	sw	t3,16(t1)
    40f6:	883e                	mv	a6,a5
    40f8:	187d                	addi	a6,a6,-1
    40fa:	fe081fe3          	bnez	a6,40f8 <JTAG_Transfer+0x5d2>
    40fe:	18fd                	addi	a7,a7,-1
    4100:	fe0893e3          	bnez	a7,40e6 <JTAG_Transfer+0x5c0>
    4104:	40011837          	lui	a6,0x40011
    4108:	6885                	lui	a7,0x1
    410a:	c1182823          	sw	a7,-1008(a6) # 40010c10 <_eusrstack+0x20008c10>
    410e:	6889                	lui	a7,0x2
    4110:	c1182a23          	sw	a7,-1004(a6)
    4114:	883e                	mv	a6,a5
    4116:	187d                	addi	a6,a6,-1
    4118:	fe081fe3          	bnez	a6,4116 <JTAG_Transfer+0x5f0>
    411c:	40011837          	lui	a6,0x40011
    4120:	6889                	lui	a7,0x2
    4122:	c1182823          	sw	a7,-1008(a6) # 40010c10 <_eusrstack+0x20008c10>
    4126:	17fd                	addi	a5,a5,-1
    4128:	fffd                	bnez	a5,4126 <JTAG_Transfer+0x600>
    412a:	a03d                	j	4158 <JTAG_Transfer+0x632>
    412c:	40011737          	lui	a4,0x40011
    4130:	6805                	lui	a6,0x1
    4132:	c1072823          	sw	a6,-1008(a4) # 40010c10 <_eusrstack+0x20008c10>
    4136:	6809                	lui	a6,0x2
    4138:	c1072a23          	sw	a6,-1004(a4)
    413c:	873e                	mv	a4,a5
    413e:	177d                	addi	a4,a4,-1
    4140:	ff7d                	bnez	a4,413e <JTAG_Transfer+0x618>
    4142:	40011837          	lui	a6,0x40011
    4146:	c0882703          	lw	a4,-1016(a6) # 40010c08 <_eusrstack+0x20008c08>
    414a:	8339                	srli	a4,a4,0xe
    414c:	8b05                	andi	a4,a4,1
    414e:	6889                	lui	a7,0x2
    4150:	c1182823          	sw	a7,-1008(a6)
    4154:	17fd                	addi	a5,a5,-1
    4156:	fffd                	bnez	a5,4154 <JTAG_Transfer+0x62e>
    4158:	e40580e3          	beqz	a1,3f98 <JTAG_Transfer+0x472>
    415c:	077e                	slli	a4,a4,0x1f
    415e:	8f55                	or	a4,a4,a3
    4160:	c198                	sw	a4,0(a1)
    4162:	bd1d                	j	3f98 <JTAG_Transfer+0x472>
    4164:	418c                	lw	a1,0(a1)
    4166:	487d                	li	a6,31
    4168:	40011737          	lui	a4,0x40011
    416c:	c0070713          	addi	a4,a4,-1024 # 40010c00 <_eusrstack+0x20008c00>
    4170:	68a1                	lui	a7,0x8
    4172:	6309                	lui	t1,0x2
    4174:	8e1a                	mv	t3,t1
    4176:	a00d                	j	4198 <JTAG_Transfer+0x672>
    4178:	01172a23          	sw	a7,20(a4)
    417c:	01c72a23          	sw	t3,20(a4)
    4180:	86be                	mv	a3,a5
    4182:	16fd                	addi	a3,a3,-1
    4184:	fefd                	bnez	a3,4182 <JTAG_Transfer+0x65c>
    4186:	00672823          	sw	t1,16(a4)
    418a:	86be                	mv	a3,a5
    418c:	16fd                	addi	a3,a3,-1
    418e:	fefd                	bnez	a3,418c <JTAG_Transfer+0x666>
    4190:	8185                	srli	a1,a1,0x1
    4192:	187d                	addi	a6,a6,-1
    4194:	00080863          	beqz	a6,41a4 <JTAG_Transfer+0x67e>
    4198:	0015f693          	andi	a3,a1,1
    419c:	def1                	beqz	a3,4178 <JTAG_Transfer+0x652>
    419e:	01172823          	sw	a7,16(a4)
    41a2:	bfe9                	j	417c <JTAG_Transfer+0x656>
    41a4:	20002737          	lui	a4,0x20002
    41a8:	cd470713          	addi	a4,a4,-812 # 20001cd4 <DAP_Data>
    41ac:	01a74683          	lbu	a3,26(a4)
    41b0:	01b74703          	lbu	a4,27(a4)
    41b4:	8e99                	sub	a3,a3,a4
    41b6:	4705                	li	a4,1
    41b8:	08e68a63          	beq	a3,a4,424c <JTAG_Transfer+0x726>
    41bc:	8985                	andi	a1,a1,1
    41be:	c1c9                	beqz	a1,4240 <JTAG_Transfer+0x71a>
    41c0:	400117b7          	lui	a5,0x40011
    41c4:	6721                	lui	a4,0x8
    41c6:	c0e7a823          	sw	a4,-1008(a5) # 40010c10 <_eusrstack+0x20008c10>
    41ca:	400117b7          	lui	a5,0x40011
    41ce:	6709                	lui	a4,0x2
    41d0:	c0e7aa23          	sw	a4,-1004(a5) # 40010c14 <_eusrstack+0x20008c14>
    41d4:	200027b7          	lui	a5,0x20002
    41d8:	cd87a703          	lw	a4,-808(a5) # 20001cd8 <DAP_Data+0x4>
    41dc:	87ba                	mv	a5,a4
    41de:	17fd                	addi	a5,a5,-1
    41e0:	fffd                	bnez	a5,41de <JTAG_Transfer+0x6b8>
    41e2:	400117b7          	lui	a5,0x40011
    41e6:	6589                	lui	a1,0x2
    41e8:	c0b7a823          	sw	a1,-1008(a5) # 40010c10 <_eusrstack+0x20008c10>
    41ec:	87ba                	mv	a5,a4
    41ee:	17fd                	addi	a5,a5,-1
    41f0:	fffd                	bnez	a5,41ee <JTAG_Transfer+0x6c8>
    41f2:	16f9                	addi	a3,a3,-2
    41f4:	c29d                	beqz	a3,421a <JTAG_Transfer+0x6f4>
    41f6:	400115b7          	lui	a1,0x40011
    41fa:	c0058593          	addi	a1,a1,-1024 # 40010c00 <_eusrstack+0x20008c00>
    41fe:	6809                	lui	a6,0x2
    4200:	88c2                	mv	a7,a6
    4202:	0115aa23          	sw	a7,20(a1)
    4206:	87ba                	mv	a5,a4
    4208:	17fd                	addi	a5,a5,-1
    420a:	fffd                	bnez	a5,4208 <JTAG_Transfer+0x6e2>
    420c:	0105a823          	sw	a6,16(a1)
    4210:	87ba                	mv	a5,a4
    4212:	17fd                	addi	a5,a5,-1
    4214:	fffd                	bnez	a5,4212 <JTAG_Transfer+0x6ec>
    4216:	16fd                	addi	a3,a3,-1
    4218:	f6ed                	bnez	a3,4202 <JTAG_Transfer+0x6dc>
    421a:	400117b7          	lui	a5,0x40011
    421e:	6685                	lui	a3,0x1
    4220:	c0d7a823          	sw	a3,-1008(a5) # 40010c10 <_eusrstack+0x20008c10>
    4224:	6689                	lui	a3,0x2
    4226:	c0d7aa23          	sw	a3,-1004(a5)
    422a:	87ba                	mv	a5,a4
    422c:	17fd                	addi	a5,a5,-1
    422e:	fffd                	bnez	a5,422c <JTAG_Transfer+0x706>
    4230:	400117b7          	lui	a5,0x40011
    4234:	6689                	lui	a3,0x2
    4236:	c0d7a823          	sw	a3,-1008(a5) # 40010c10 <_eusrstack+0x20008c10>
    423a:	177d                	addi	a4,a4,-1
    423c:	ff7d                	bnez	a4,423a <JTAG_Transfer+0x714>
    423e:	bba9                	j	3f98 <JTAG_Transfer+0x472>
    4240:	400117b7          	lui	a5,0x40011
    4244:	6721                	lui	a4,0x8
    4246:	c0e7aa23          	sw	a4,-1004(a5) # 40010c14 <_eusrstack+0x20008c14>
    424a:	b741                	j	41ca <JTAG_Transfer+0x6a4>
    424c:	40011737          	lui	a4,0x40011
    4250:	6685                	lui	a3,0x1
    4252:	c0d72823          	sw	a3,-1008(a4) # 40010c10 <_eusrstack+0x20008c10>
    4256:	8985                	andi	a1,a1,1
    4258:	c595                	beqz	a1,4284 <JTAG_Transfer+0x75e>
    425a:	40011737          	lui	a4,0x40011
    425e:	66a1                	lui	a3,0x8
    4260:	c0d72823          	sw	a3,-1008(a4) # 40010c10 <_eusrstack+0x20008c10>
    4264:	40011737          	lui	a4,0x40011
    4268:	6689                	lui	a3,0x2
    426a:	c0d72a23          	sw	a3,-1004(a4) # 40010c14 <_eusrstack+0x20008c14>
    426e:	873e                	mv	a4,a5
    4270:	177d                	addi	a4,a4,-1
    4272:	ff7d                	bnez	a4,4270 <JTAG_Transfer+0x74a>
    4274:	40011737          	lui	a4,0x40011
    4278:	6689                	lui	a3,0x2
    427a:	c0d72823          	sw	a3,-1008(a4) # 40010c10 <_eusrstack+0x20008c10>
    427e:	17fd                	addi	a5,a5,-1
    4280:	fffd                	bnez	a5,427e <JTAG_Transfer+0x758>
    4282:	bb19                	j	3f98 <JTAG_Transfer+0x472>
    4284:	40011737          	lui	a4,0x40011
    4288:	66a1                	lui	a3,0x8
    428a:	c0d72a23          	sw	a3,-1004(a4) # 40010c14 <_eusrstack+0x20008c14>
    428e:	bfd9                	j	4264 <JTAG_Transfer+0x73e>
    4290:	0ff67513          	andi	a0,a2,255
    4294:	8082                	ret

00004296 <SWJ_Sequence>:
    4296:	fff50813          	addi	a6,a0,-1
    429a:	cd21                	beqz	a0,42f2 <SWJ_Sequence+0x5c>
    429c:	200027b7          	lui	a5,0x20002
    42a0:	cd87a503          	lw	a0,-808(a5) # 20001cd8 <DAP_Data+0x4>
    42a4:	4681                	li	a3,0
    42a6:	4701                	li	a4,0
    42a8:	40011637          	lui	a2,0x40011
    42ac:	c0060613          	addi	a2,a2,-1024 # 40010c00 <_eusrstack+0x20008c00>
    42b0:	6e85                	lui	t4,0x1
    42b2:	6889                	lui	a7,0x2
    42b4:	8e46                	mv	t3,a7
    42b6:	537d                	li	t1,-1
    42b8:	a015                	j	42dc <SWJ_Sequence+0x46>
    42ba:	01d62a23          	sw	t4,20(a2)
    42be:	01c62a23          	sw	t3,20(a2)
    42c2:	87aa                	mv	a5,a0
    42c4:	17fd                	addi	a5,a5,-1
    42c6:	fffd                	bnez	a5,42c4 <SWJ_Sequence+0x2e>
    42c8:	01162823          	sw	a7,16(a2)
    42cc:	87aa                	mv	a5,a0
    42ce:	17fd                	addi	a5,a5,-1
    42d0:	fffd                	bnez	a5,42ce <SWJ_Sequence+0x38>
    42d2:	8305                	srli	a4,a4,0x1
    42d4:	16fd                	addi	a3,a3,-1
    42d6:	187d                	addi	a6,a6,-1
    42d8:	00680d63          	beq	a6,t1,42f2 <SWJ_Sequence+0x5c>
    42dc:	e689                	bnez	a3,42e6 <SWJ_Sequence+0x50>
    42de:	0005c703          	lbu	a4,0(a1)
    42e2:	0585                	addi	a1,a1,1
    42e4:	46a1                	li	a3,8
    42e6:	00177793          	andi	a5,a4,1
    42ea:	dbe1                	beqz	a5,42ba <SWJ_Sequence+0x24>
    42ec:	01d62823          	sw	t4,16(a2)
    42f0:	b7f9                	j	42be <SWJ_Sequence+0x28>
    42f2:	8082                	ret

000042f4 <SWD_Sequence>:
    42f4:	03f57693          	andi	a3,a0,63
    42f8:	cad5                	beqz	a3,43ac <SWD_Sequence+0xb8>
    42fa:	08057513          	andi	a0,a0,128
    42fe:	cd11                	beqz	a0,431a <SWD_Sequence+0x26>
    4300:	4521                	li	a0,8
    4302:	4581                	li	a1,0
    4304:	40011837          	lui	a6,0x40011
    4308:	c0080813          	addi	a6,a6,-1024 # 40010c00 <_eusrstack+0x20008c00>
    430c:	6309                	lui	t1,0x2
    430e:	8e1a                	mv	t3,t1
    4310:	200028b7          	lui	a7,0x20002
    4314:	cd488893          	addi	a7,a7,-812 # 20001cd4 <DAP_Data>
    4318:	a831                	j	4334 <SWD_Sequence+0x40>
    431a:	eed1                	bnez	a3,43b6 <SWD_Sequence+0xc2>
    431c:	8082                	ret
    431e:	04000693          	li	a3,64
    4322:	bff9                	j	4300 <SWD_Sequence+0xc>
    4324:	00160793          	addi	a5,a2,1
    4328:	00b60023          	sb	a1,0(a2)
    432c:	c2a1                	beqz	a3,436c <SWD_Sequence+0x78>
    432e:	863e                	mv	a2,a5
    4330:	85aa                	mv	a1,a0
    4332:	4521                	li	a0,8
    4334:	01c82a23          	sw	t3,20(a6)
    4338:	0048a783          	lw	a5,4(a7)
    433c:	873e                	mv	a4,a5
    433e:	177d                	addi	a4,a4,-1
    4340:	ff7d                	bnez	a4,433e <SWD_Sequence+0x4a>
    4342:	00882703          	lw	a4,8(a6)
    4346:	8331                	srli	a4,a4,0xc
    4348:	8b05                	andi	a4,a4,1
    434a:	00682823          	sw	t1,16(a6)
    434e:	17fd                	addi	a5,a5,-1
    4350:	fffd                	bnez	a5,434e <SWD_Sequence+0x5a>
    4352:	8185                	srli	a1,a1,0x1
    4354:	00771793          	slli	a5,a4,0x7
    4358:	8ddd                	or	a1,a1,a5
    435a:	157d                	addi	a0,a0,-1
    435c:	16fd                	addi	a3,a3,-1
    435e:	d179                	beqz	a0,4324 <SWD_Sequence+0x30>
    4360:	faf1                	bnez	a3,4334 <SWD_Sequence+0x40>
    4362:	00a5d7b3          	srl	a5,a1,a0
    4366:	00f60023          	sb	a5,0(a2)
    436a:	8082                	ret
    436c:	8082                	ret
    436e:	0065aa23          	sw	t1,20(a1)
    4372:	0115aa23          	sw	a7,20(a1)
    4376:	87aa                	mv	a5,a0
    4378:	17fd                	addi	a5,a5,-1
    437a:	fffd                	bnez	a5,4378 <SWD_Sequence+0x84>
    437c:	0105a823          	sw	a6,16(a1)
    4380:	87aa                	mv	a5,a0
    4382:	17fd                	addi	a5,a5,-1
    4384:	fffd                	bnez	a5,4382 <SWD_Sequence+0x8e>
    4386:	8205                	srli	a2,a2,0x1
    4388:	177d                	addi	a4,a4,-1
    438a:	16fd                	addi	a3,a3,-1
    438c:	cb09                	beqz	a4,439e <SWD_Sequence+0xaa>
    438e:	c699                	beqz	a3,439c <SWD_Sequence+0xa8>
    4390:	00167793          	andi	a5,a2,1
    4394:	dfe9                	beqz	a5,436e <SWD_Sequence+0x7a>
    4396:	0065a823          	sw	t1,16(a1)
    439a:	bfe1                	j	4372 <SWD_Sequence+0x7e>
    439c:	8082                	ret
    439e:	c691                	beqz	a3,43aa <SWD_Sequence+0xb6>
    43a0:	000e4603          	lbu	a2,0(t3) # 2000 <DAP_ProcessCommand+0x49a>
    43a4:	0e05                	addi	t3,t3,1
    43a6:	4721                	li	a4,8
    43a8:	b7e5                	j	4390 <SWD_Sequence+0x9c>
    43aa:	8082                	ret
    43ac:	08057513          	andi	a0,a0,128
    43b0:	f53d                	bnez	a0,431e <SWD_Sequence+0x2a>
    43b2:	04000693          	li	a3,64
    43b6:	00158e13          	addi	t3,a1,1
    43ba:	0005c603          	lbu	a2,0(a1)
    43be:	200027b7          	lui	a5,0x20002
    43c2:	cd87a503          	lw	a0,-808(a5) # 20001cd8 <DAP_Data+0x4>
    43c6:	4721                	li	a4,8
    43c8:	400115b7          	lui	a1,0x40011
    43cc:	c0058593          	addi	a1,a1,-1024 # 40010c00 <_eusrstack+0x20008c00>
    43d0:	6305                	lui	t1,0x1
    43d2:	6809                	lui	a6,0x2
    43d4:	88c2                	mv	a7,a6
    43d6:	bf6d                	j	4390 <SWD_Sequence+0x9c>

000043d8 <SWD_Transfer>:
    43d8:	200027b7          	lui	a5,0x20002
    43dc:	cd57c783          	lbu	a5,-811(a5) # 20001cd5 <DAP_Data+0x1>
    43e0:	40078263          	beqz	a5,47e4 <SWD_Transfer+0x40c>
    43e4:	400117b7          	lui	a5,0x40011
    43e8:	6705                	lui	a4,0x1
    43ea:	c0e7a823          	sw	a4,-1008(a5) # 40010c10 <_eusrstack+0x20008c10>
    43ee:	6709                	lui	a4,0x2
    43f0:	c0e7aa23          	sw	a4,-1004(a5)
    43f4:	c0e7a823          	sw	a4,-1008(a5)
    43f8:	00157793          	andi	a5,a0,1
    43fc:	18078963          	beqz	a5,458e <SWD_Transfer+0x1b6>
    4400:	400117b7          	lui	a5,0x40011
    4404:	6705                	lui	a4,0x1
    4406:	c0e7a823          	sw	a4,-1008(a5) # 40010c10 <_eusrstack+0x20008c10>
    440a:	400117b7          	lui	a5,0x40011
    440e:	6709                	lui	a4,0x2
    4410:	c0e7aa23          	sw	a4,-1004(a5) # 40010c14 <_eusrstack+0x20008c14>
    4414:	c0e7a823          	sw	a4,-1008(a5)
    4418:	00155793          	srli	a5,a0,0x1
    441c:	0017f713          	andi	a4,a5,1
    4420:	16070d63          	beqz	a4,459a <SWD_Transfer+0x1c2>
    4424:	40011737          	lui	a4,0x40011
    4428:	6685                	lui	a3,0x1
    442a:	c0d72823          	sw	a3,-1008(a4) # 40010c10 <_eusrstack+0x20008c10>
    442e:	40011737          	lui	a4,0x40011
    4432:	6689                	lui	a3,0x2
    4434:	c0d72a23          	sw	a3,-1004(a4) # 40010c14 <_eusrstack+0x20008c14>
    4438:	c0d72823          	sw	a3,-1008(a4)
    443c:	00255713          	srli	a4,a0,0x2
    4440:	97ba                	add	a5,a5,a4
    4442:	8b05                	andi	a4,a4,1
    4444:	16070163          	beqz	a4,45a6 <SWD_Transfer+0x1ce>
    4448:	40011737          	lui	a4,0x40011
    444c:	6685                	lui	a3,0x1
    444e:	c0d72823          	sw	a3,-1008(a4) # 40010c10 <_eusrstack+0x20008c10>
    4452:	40011737          	lui	a4,0x40011
    4456:	6689                	lui	a3,0x2
    4458:	c0d72a23          	sw	a3,-1004(a4) # 40010c14 <_eusrstack+0x20008c14>
    445c:	c0d72823          	sw	a3,-1008(a4)
    4460:	97aa                	add	a5,a5,a0
    4462:	00355693          	srli	a3,a0,0x3
    4466:	0016f713          	andi	a4,a3,1
    446a:	14070463          	beqz	a4,45b2 <SWD_Transfer+0x1da>
    446e:	40011737          	lui	a4,0x40011
    4472:	6605                	lui	a2,0x1
    4474:	c0c72823          	sw	a2,-1008(a4) # 40010c10 <_eusrstack+0x20008c10>
    4478:	40011737          	lui	a4,0x40011
    447c:	6609                	lui	a2,0x2
    447e:	c0c72a23          	sw	a2,-1004(a4) # 40010c14 <_eusrstack+0x20008c14>
    4482:	c0c72823          	sw	a2,-1008(a4)
    4486:	c0070713          	addi	a4,a4,-1024
    448a:	97b6                	add	a5,a5,a3
    448c:	8b85                	andi	a5,a5,1
    448e:	12078863          	beqz	a5,45be <SWD_Transfer+0x1e6>
    4492:	87ba                	mv	a5,a4
    4494:	6705                	lui	a4,0x1
    4496:	cb98                	sw	a4,16(a5)
    4498:	400117b7          	lui	a5,0x40011
    449c:	6709                	lui	a4,0x2
    449e:	c0e7aa23          	sw	a4,-1004(a5) # 40010c14 <_eusrstack+0x20008c14>
    44a2:	c0e7a823          	sw	a4,-1008(a5)
    44a6:	6685                	lui	a3,0x1
    44a8:	c0d7aa23          	sw	a3,-1004(a5)
    44ac:	c0e7aa23          	sw	a4,-1004(a5)
    44b0:	c0e7a823          	sw	a4,-1008(a5)
    44b4:	c0d7a823          	sw	a3,-1008(a5)
    44b8:	c0e7aa23          	sw	a4,-1004(a5)
    44bc:	c0e7a823          	sw	a4,-1008(a5)
    44c0:	c0d7a823          	sw	a3,-1008(a5)
    44c4:	c047a703          	lw	a4,-1020(a5)
    44c8:	fff106b7          	lui	a3,0xfff10
    44cc:	16fd                	addi	a3,a3,-1
    44ce:	8f75                	and	a4,a4,a3
    44d0:	000806b7          	lui	a3,0x80
    44d4:	8f55                	or	a4,a4,a3
    44d6:	c0e7a223          	sw	a4,-1020(a5)
    44da:	200027b7          	lui	a5,0x20002
    44de:	cec7c783          	lbu	a5,-788(a5) # 20001cec <DAP_Data+0x18>
    44e2:	cb91                	beqz	a5,44f6 <SWD_Transfer+0x11e>
    44e4:	40011737          	lui	a4,0x40011
    44e8:	c0070713          	addi	a4,a4,-1024 # 40010c00 <_eusrstack+0x20008c00>
    44ec:	6689                	lui	a3,0x2
    44ee:	cb54                	sw	a3,20(a4)
    44f0:	cb14                	sw	a3,16(a4)
    44f2:	17fd                	addi	a5,a5,-1
    44f4:	ffed                	bnez	a5,44ee <SWD_Transfer+0x116>
    44f6:	40011737          	lui	a4,0x40011
    44fa:	6689                	lui	a3,0x2
    44fc:	c0d72a23          	sw	a3,-1004(a4) # 40010c14 <_eusrstack+0x20008c14>
    4500:	c0872603          	lw	a2,-1016(a4)
    4504:	c0d72823          	sw	a3,-1008(a4)
    4508:	c0d72a23          	sw	a3,-1004(a4)
    450c:	c0872783          	lw	a5,-1016(a4)
    4510:	c0d72823          	sw	a3,-1008(a4)
    4514:	c0d72a23          	sw	a3,-1004(a4)
    4518:	c0872803          	lw	a6,-1016(a4)
    451c:	c0d72823          	sw	a3,-1008(a4)
    4520:	00b7d713          	srli	a4,a5,0xb
    4524:	8b09                	andi	a4,a4,2
    4526:	00a85793          	srli	a5,a6,0xa
    452a:	8b91                	andi	a5,a5,4
    452c:	8f5d                	or	a4,a4,a5
    452e:	00c65793          	srli	a5,a2,0xc
    4532:	8b85                	andi	a5,a5,1
    4534:	8f5d                	or	a4,a4,a5
    4536:	4785                	li	a5,1
    4538:	08f70963          	beq	a4,a5,45ca <SWD_Transfer+0x1f2>
    453c:	ffe70793          	addi	a5,a4,-2
    4540:	9bf5                	andi	a5,a5,-3
    4542:	20078163          	beqz	a5,4744 <SWD_Transfer+0x36c>
    4546:	200027b7          	lui	a5,0x20002
    454a:	cec7c783          	lbu	a5,-788(a5) # 20001cec <DAP_Data+0x18>
    454e:	02178793          	addi	a5,a5,33
    4552:	400116b7          	lui	a3,0x40011
    4556:	c0068693          	addi	a3,a3,-1024 # 40010c00 <_eusrstack+0x20008c00>
    455a:	6609                	lui	a2,0x2
    455c:	cad0                	sw	a2,20(a3)
    455e:	ca90                	sw	a2,16(a3)
    4560:	17fd                	addi	a5,a5,-1
    4562:	ffed                	bnez	a5,455c <SWD_Transfer+0x184>
    4564:	400117b7          	lui	a5,0x40011
    4568:	6585                	lui	a1,0x1
    456a:	c0b7aa23          	sw	a1,-1004(a5) # 40010c14 <_eusrstack+0x20008c14>
    456e:	c047a683          	lw	a3,-1020(a5)
    4572:	fff10637          	lui	a2,0xfff10
    4576:	167d                	addi	a2,a2,-1
    4578:	8ef1                	and	a3,a3,a2
    457a:	00030637          	lui	a2,0x30
    457e:	8ed1                	or	a3,a3,a2
    4580:	c0d7a223          	sw	a3,-1020(a5)
    4584:	c0b7a823          	sw	a1,-1008(a5)
    4588:	0ff77513          	andi	a0,a4,255
    458c:	8082                	ret
    458e:	400117b7          	lui	a5,0x40011
    4592:	6705                	lui	a4,0x1
    4594:	c0e7aa23          	sw	a4,-1004(a5) # 40010c14 <_eusrstack+0x20008c14>
    4598:	bd8d                	j	440a <SWD_Transfer+0x32>
    459a:	40011737          	lui	a4,0x40011
    459e:	6685                	lui	a3,0x1
    45a0:	c0d72a23          	sw	a3,-1004(a4) # 40010c14 <_eusrstack+0x20008c14>
    45a4:	b569                	j	442e <SWD_Transfer+0x56>
    45a6:	40011737          	lui	a4,0x40011
    45aa:	6685                	lui	a3,0x1
    45ac:	c0d72a23          	sw	a3,-1004(a4) # 40010c14 <_eusrstack+0x20008c14>
    45b0:	b54d                	j	4452 <SWD_Transfer+0x7a>
    45b2:	40011737          	lui	a4,0x40011
    45b6:	6605                	lui	a2,0x1
    45b8:	c0c72a23          	sw	a2,-1004(a4) # 40010c14 <_eusrstack+0x20008c14>
    45bc:	bd75                	j	4478 <SWD_Transfer+0xa0>
    45be:	400117b7          	lui	a5,0x40011
    45c2:	6705                	lui	a4,0x1
    45c4:	c0e7aa23          	sw	a4,-1004(a5) # 40010c14 <_eusrstack+0x20008c14>
    45c8:	bdc1                	j	4498 <SWD_Transfer+0xc0>
    45ca:	00257793          	andi	a5,a0,2
    45ce:	cfe1                	beqz	a5,46a6 <SWD_Transfer+0x2ce>
    45d0:	02000813          	li	a6,32
    45d4:	4681                	li	a3,0
    45d6:	4881                	li	a7,0
    45d8:	40011637          	lui	a2,0x40011
    45dc:	c0060613          	addi	a2,a2,-1024 # 40010c00 <_eusrstack+0x20008c00>
    45e0:	6309                	lui	t1,0x2
    45e2:	00662a23          	sw	t1,20(a2)
    45e6:	461c                	lw	a5,8(a2)
    45e8:	83b1                	srli	a5,a5,0xc
    45ea:	8b85                	andi	a5,a5,1
    45ec:	00662823          	sw	t1,16(a2)
    45f0:	98be                	add	a7,a7,a5
    45f2:	8285                	srli	a3,a3,0x1
    45f4:	07fe                	slli	a5,a5,0x1f
    45f6:	8edd                	or	a3,a3,a5
    45f8:	187d                	addi	a6,a6,-1
    45fa:	fe0814e3          	bnez	a6,45e2 <SWD_Transfer+0x20a>
    45fe:	400117b7          	lui	a5,0x40011
    4602:	6809                	lui	a6,0x2
    4604:	c107aa23          	sw	a6,-1004(a5) # 40010c14 <_eusrstack+0x20008c14>
    4608:	c087a603          	lw	a2,-1016(a5)
    460c:	c107a823          	sw	a6,-1008(a5)
    4610:	00c65793          	srli	a5,a2,0xc
    4614:	00f8c8b3          	xor	a7,a7,a5
    4618:	0018f893          	andi	a7,a7,1
    461c:	00088363          	beqz	a7,4622 <SWD_Transfer+0x24a>
    4620:	4721                	li	a4,8
    4622:	c191                	beqz	a1,4626 <SWD_Transfer+0x24e>
    4624:	c194                	sw	a3,0(a1)
    4626:	200027b7          	lui	a5,0x20002
    462a:	cec7c783          	lbu	a5,-788(a5) # 20001cec <DAP_Data+0x18>
    462e:	cb91                	beqz	a5,4642 <SWD_Transfer+0x26a>
    4630:	400116b7          	lui	a3,0x40011
    4634:	c0068693          	addi	a3,a3,-1024 # 40010c00 <_eusrstack+0x20008c00>
    4638:	6609                	lui	a2,0x2
    463a:	cad0                	sw	a2,20(a3)
    463c:	ca90                	sw	a2,16(a3)
    463e:	17fd                	addi	a5,a5,-1
    4640:	ffed                	bnez	a5,463a <SWD_Transfer+0x262>
    4642:	400117b7          	lui	a5,0x40011
    4646:	6685                	lui	a3,0x1
    4648:	c0d7aa23          	sw	a3,-1004(a5) # 40010c14 <_eusrstack+0x20008c14>
    464c:	c047a683          	lw	a3,-1020(a5)
    4650:	fff10637          	lui	a2,0xfff10
    4654:	167d                	addi	a2,a2,-1
    4656:	8ef1                	and	a3,a3,a2
    4658:	00030637          	lui	a2,0x30
    465c:	8ed1                	or	a3,a3,a2
    465e:	c0d7a223          	sw	a3,-1020(a5)
    4662:	08057513          	andi	a0,a0,128
    4666:	c509                	beqz	a0,4670 <SWD_Transfer+0x298>
    4668:	200027b7          	lui	a5,0x20002
    466c:	cc07ae23          	sw	zero,-804(a5) # 20001cdc <DAP_Data+0x8>
    4670:	200027b7          	lui	a5,0x20002
    4674:	ce07c783          	lbu	a5,-800(a5) # 20001ce0 <DAP_Data+0xc>
    4678:	cf99                	beqz	a5,4696 <SWD_Transfer+0x2be>
    467a:	400116b7          	lui	a3,0x40011
    467e:	6605                	lui	a2,0x1
    4680:	c0c6aa23          	sw	a2,-1004(a3) # 40010c14 <_eusrstack+0x20008c14>
    4684:	400116b7          	lui	a3,0x40011
    4688:	c0068693          	addi	a3,a3,-1024 # 40010c00 <_eusrstack+0x20008c00>
    468c:	6609                	lui	a2,0x2
    468e:	cad0                	sw	a2,20(a3)
    4690:	ca90                	sw	a2,16(a3)
    4692:	17fd                	addi	a5,a5,-1
    4694:	ffed                	bnez	a5,468e <SWD_Transfer+0x2b6>
    4696:	400117b7          	lui	a5,0x40011
    469a:	6685                	lui	a3,0x1
    469c:	c0d7a823          	sw	a3,-1008(a5) # 40010c10 <_eusrstack+0x20008c10>
    46a0:	0ff77513          	andi	a0,a4,255
    46a4:	8082                	ret
    46a6:	200027b7          	lui	a5,0x20002
    46aa:	cec7c783          	lbu	a5,-788(a5) # 20001cec <DAP_Data+0x18>
    46ae:	cb91                	beqz	a5,46c2 <SWD_Transfer+0x2ea>
    46b0:	400116b7          	lui	a3,0x40011
    46b4:	c0068693          	addi	a3,a3,-1024 # 40010c00 <_eusrstack+0x20008c00>
    46b8:	6609                	lui	a2,0x2
    46ba:	cad0                	sw	a2,20(a3)
    46bc:	ca90                	sw	a2,16(a3)
    46be:	17fd                	addi	a5,a5,-1
    46c0:	ffed                	bnez	a5,46ba <SWD_Transfer+0x2e2>
    46c2:	400117b7          	lui	a5,0x40011
    46c6:	6685                	lui	a3,0x1
    46c8:	c0d7aa23          	sw	a3,-1004(a5) # 40010c14 <_eusrstack+0x20008c14>
    46cc:	c047a683          	lw	a3,-1020(a5)
    46d0:	fff10637          	lui	a2,0xfff10
    46d4:	167d                	addi	a2,a2,-1
    46d6:	8ef1                	and	a3,a3,a2
    46d8:	00030637          	lui	a2,0x30
    46dc:	8ed1                	or	a3,a3,a2
    46de:	c0d7a223          	sw	a3,-1020(a5)
    46e2:	419c                	lw	a5,0(a1)
    46e4:	02000613          	li	a2,32
    46e8:	4581                	li	a1,0
    46ea:	400116b7          	lui	a3,0x40011
    46ee:	c0068693          	addi	a3,a3,-1024 # 40010c00 <_eusrstack+0x20008c00>
    46f2:	6305                	lui	t1,0x1
    46f4:	6809                	lui	a6,0x2
    46f6:	a819                	j	470c <SWD_Transfer+0x334>
    46f8:	0066aa23          	sw	t1,20(a3)
    46fc:	0106aa23          	sw	a6,20(a3)
    4700:	0106a823          	sw	a6,16(a3)
    4704:	95be                	add	a1,a1,a5
    4706:	8385                	srli	a5,a5,0x1
    4708:	167d                	addi	a2,a2,-1
    470a:	ca01                	beqz	a2,471a <SWD_Transfer+0x342>
    470c:	0017f893          	andi	a7,a5,1
    4710:	fe0884e3          	beqz	a7,46f8 <SWD_Transfer+0x320>
    4714:	0066a823          	sw	t1,16(a3)
    4718:	b7d5                	j	46fc <SWD_Transfer+0x324>
    471a:	8985                	andi	a1,a1,1
    471c:	cd91                	beqz	a1,4738 <SWD_Transfer+0x360>
    471e:	400117b7          	lui	a5,0x40011
    4722:	6685                	lui	a3,0x1
    4724:	c0d7a823          	sw	a3,-1008(a5) # 40010c10 <_eusrstack+0x20008c10>
    4728:	400117b7          	lui	a5,0x40011
    472c:	6689                	lui	a3,0x2
    472e:	c0d7aa23          	sw	a3,-1004(a5) # 40010c14 <_eusrstack+0x20008c14>
    4732:	c0d7a823          	sw	a3,-1008(a5)
    4736:	b735                	j	4662 <SWD_Transfer+0x28a>
    4738:	400117b7          	lui	a5,0x40011
    473c:	6685                	lui	a3,0x1
    473e:	c0d7aa23          	sw	a3,-1004(a5) # 40010c14 <_eusrstack+0x20008c14>
    4742:	b7dd                	j	4728 <SWD_Transfer+0x350>
    4744:	200027b7          	lui	a5,0x20002
    4748:	ced7c783          	lbu	a5,-787(a5) # 20001ced <DAP_Data+0x19>
    474c:	cf99                	beqz	a5,476a <SWD_Transfer+0x392>
    474e:	00257793          	andi	a5,a0,2
    4752:	cf81                	beqz	a5,476a <SWD_Transfer+0x392>
    4754:	02100793          	li	a5,33
    4758:	400116b7          	lui	a3,0x40011
    475c:	c0068693          	addi	a3,a3,-1024 # 40010c00 <_eusrstack+0x20008c00>
    4760:	6609                	lui	a2,0x2
    4762:	cad0                	sw	a2,20(a3)
    4764:	ca90                	sw	a2,16(a3)
    4766:	17fd                	addi	a5,a5,-1
    4768:	ffed                	bnez	a5,4762 <SWD_Transfer+0x38a>
    476a:	200027b7          	lui	a5,0x20002
    476e:	cec7c783          	lbu	a5,-788(a5) # 20001cec <DAP_Data+0x18>
    4772:	cb91                	beqz	a5,4786 <SWD_Transfer+0x3ae>
    4774:	400116b7          	lui	a3,0x40011
    4778:	c0068693          	addi	a3,a3,-1024 # 40010c00 <_eusrstack+0x20008c00>
    477c:	6609                	lui	a2,0x2
    477e:	cad0                	sw	a2,20(a3)
    4780:	ca90                	sw	a2,16(a3)
    4782:	17fd                	addi	a5,a5,-1
    4784:	ffed                	bnez	a5,477e <SWD_Transfer+0x3a6>
    4786:	400117b7          	lui	a5,0x40011
    478a:	6685                	lui	a3,0x1
    478c:	c0d7aa23          	sw	a3,-1004(a5) # 40010c14 <_eusrstack+0x20008c14>
    4790:	c047a683          	lw	a3,-1020(a5)
    4794:	fff10637          	lui	a2,0xfff10
    4798:	167d                	addi	a2,a2,-1
    479a:	8ef1                	and	a3,a3,a2
    479c:	00030637          	lui	a2,0x30
    47a0:	8ed1                	or	a3,a3,a2
    47a2:	c0d7a223          	sw	a3,-1020(a5)
    47a6:	200027b7          	lui	a5,0x20002
    47aa:	ced7c783          	lbu	a5,-787(a5) # 20001ced <DAP_Data+0x19>
    47ae:	c39d                	beqz	a5,47d4 <SWD_Transfer+0x3fc>
    47b0:	8909                	andi	a0,a0,2
    47b2:	e10d                	bnez	a0,47d4 <SWD_Transfer+0x3fc>
    47b4:	400117b7          	lui	a5,0x40011
    47b8:	6685                	lui	a3,0x1
    47ba:	c0d7aa23          	sw	a3,-1004(a5) # 40010c14 <_eusrstack+0x20008c14>
    47be:	02100793          	li	a5,33
    47c2:	400116b7          	lui	a3,0x40011
    47c6:	c0068693          	addi	a3,a3,-1024 # 40010c00 <_eusrstack+0x20008c00>
    47ca:	6609                	lui	a2,0x2
    47cc:	cad0                	sw	a2,20(a3)
    47ce:	ca90                	sw	a2,16(a3)
    47d0:	17fd                	addi	a5,a5,-1
    47d2:	ffed                	bnez	a5,47cc <SWD_Transfer+0x3f4>
    47d4:	400117b7          	lui	a5,0x40011
    47d8:	6685                	lui	a3,0x1
    47da:	c0d7a823          	sw	a3,-1008(a5) # 40010c10 <_eusrstack+0x20008c10>
    47de:	0ff77513          	andi	a0,a4,255
    47e2:	8082                	ret
    47e4:	400117b7          	lui	a5,0x40011
    47e8:	6705                	lui	a4,0x1
    47ea:	c0e7a823          	sw	a4,-1008(a5) # 40010c10 <_eusrstack+0x20008c10>
    47ee:	6709                	lui	a4,0x2
    47f0:	c0e7aa23          	sw	a4,-1004(a5)
    47f4:	200027b7          	lui	a5,0x20002
    47f8:	cd87a783          	lw	a5,-808(a5) # 20001cd8 <DAP_Data+0x4>
    47fc:	873e                	mv	a4,a5
    47fe:	177d                	addi	a4,a4,-1
    4800:	ff7d                	bnez	a4,47fe <SWD_Transfer+0x426>
    4802:	40011737          	lui	a4,0x40011
    4806:	6689                	lui	a3,0x2
    4808:	c0d72823          	sw	a3,-1008(a4) # 40010c10 <_eusrstack+0x20008c10>
    480c:	873e                	mv	a4,a5
    480e:	177d                	addi	a4,a4,-1
    4810:	ff7d                	bnez	a4,480e <SWD_Transfer+0x436>
    4812:	00157713          	andi	a4,a0,1
    4816:	28070e63          	beqz	a4,4ab2 <SWD_Transfer+0x6da>
    481a:	40011737          	lui	a4,0x40011
    481e:	6685                	lui	a3,0x1
    4820:	c0d72823          	sw	a3,-1008(a4) # 40010c10 <_eusrstack+0x20008c10>
    4824:	40011737          	lui	a4,0x40011
    4828:	6689                	lui	a3,0x2
    482a:	c0d72a23          	sw	a3,-1004(a4) # 40010c14 <_eusrstack+0x20008c14>
    482e:	873e                	mv	a4,a5
    4830:	177d                	addi	a4,a4,-1
    4832:	ff7d                	bnez	a4,4830 <SWD_Transfer+0x458>
    4834:	40011737          	lui	a4,0x40011
    4838:	6689                	lui	a3,0x2
    483a:	c0d72823          	sw	a3,-1008(a4) # 40010c10 <_eusrstack+0x20008c10>
    483e:	873e                	mv	a4,a5
    4840:	177d                	addi	a4,a4,-1
    4842:	ff7d                	bnez	a4,4840 <SWD_Transfer+0x468>
    4844:	00155713          	srli	a4,a0,0x1
    4848:	00177693          	andi	a3,a4,1
    484c:	26068963          	beqz	a3,4abe <SWD_Transfer+0x6e6>
    4850:	400116b7          	lui	a3,0x40011
    4854:	6605                	lui	a2,0x1
    4856:	c0c6a823          	sw	a2,-1008(a3) # 40010c10 <_eusrstack+0x20008c10>
    485a:	400116b7          	lui	a3,0x40011
    485e:	6609                	lui	a2,0x2
    4860:	c0c6aa23          	sw	a2,-1004(a3) # 40010c14 <_eusrstack+0x20008c14>
    4864:	86be                	mv	a3,a5
    4866:	16fd                	addi	a3,a3,-1
    4868:	fefd                	bnez	a3,4866 <SWD_Transfer+0x48e>
    486a:	400116b7          	lui	a3,0x40011
    486e:	6609                	lui	a2,0x2
    4870:	c0c6a823          	sw	a2,-1008(a3) # 40010c10 <_eusrstack+0x20008c10>
    4874:	86be                	mv	a3,a5
    4876:	16fd                	addi	a3,a3,-1
    4878:	fefd                	bnez	a3,4876 <SWD_Transfer+0x49e>
    487a:	00255693          	srli	a3,a0,0x2
    487e:	9736                	add	a4,a4,a3
    4880:	8a85                	andi	a3,a3,1
    4882:	24068463          	beqz	a3,4aca <SWD_Transfer+0x6f2>
    4886:	400116b7          	lui	a3,0x40011
    488a:	6605                	lui	a2,0x1
    488c:	c0c6a823          	sw	a2,-1008(a3) # 40010c10 <_eusrstack+0x20008c10>
    4890:	400116b7          	lui	a3,0x40011
    4894:	6609                	lui	a2,0x2
    4896:	c0c6aa23          	sw	a2,-1004(a3) # 40010c14 <_eusrstack+0x20008c14>
    489a:	86be                	mv	a3,a5
    489c:	16fd                	addi	a3,a3,-1
    489e:	fefd                	bnez	a3,489c <SWD_Transfer+0x4c4>
    48a0:	400116b7          	lui	a3,0x40011
    48a4:	6609                	lui	a2,0x2
    48a6:	c0c6a823          	sw	a2,-1008(a3) # 40010c10 <_eusrstack+0x20008c10>
    48aa:	86be                	mv	a3,a5
    48ac:	16fd                	addi	a3,a3,-1
    48ae:	fefd                	bnez	a3,48ac <SWD_Transfer+0x4d4>
    48b0:	972a                	add	a4,a4,a0
    48b2:	00355613          	srli	a2,a0,0x3
    48b6:	00167693          	andi	a3,a2,1
    48ba:	20068e63          	beqz	a3,4ad6 <SWD_Transfer+0x6fe>
    48be:	400116b7          	lui	a3,0x40011
    48c2:	6805                	lui	a6,0x1
    48c4:	c106a823          	sw	a6,-1008(a3) # 40010c10 <_eusrstack+0x20008c10>
    48c8:	400116b7          	lui	a3,0x40011
    48cc:	6809                	lui	a6,0x2
    48ce:	c106aa23          	sw	a6,-1004(a3) # 40010c14 <_eusrstack+0x20008c14>
    48d2:	86be                	mv	a3,a5
    48d4:	16fd                	addi	a3,a3,-1
    48d6:	fefd                	bnez	a3,48d4 <SWD_Transfer+0x4fc>
    48d8:	400116b7          	lui	a3,0x40011
    48dc:	6809                	lui	a6,0x2
    48de:	c106a823          	sw	a6,-1008(a3) # 40010c10 <_eusrstack+0x20008c10>
    48e2:	86be                	mv	a3,a5
    48e4:	16fd                	addi	a3,a3,-1
    48e6:	fefd                	bnez	a3,48e4 <SWD_Transfer+0x50c>
    48e8:	9732                	add	a4,a4,a2
    48ea:	8b05                	andi	a4,a4,1
    48ec:	1e070b63          	beqz	a4,4ae2 <SWD_Transfer+0x70a>
    48f0:	40011737          	lui	a4,0x40011
    48f4:	6685                	lui	a3,0x1
    48f6:	c0d72823          	sw	a3,-1008(a4) # 40010c10 <_eusrstack+0x20008c10>
    48fa:	40011737          	lui	a4,0x40011
    48fe:	6689                	lui	a3,0x2
    4900:	c0d72a23          	sw	a3,-1004(a4) # 40010c14 <_eusrstack+0x20008c14>
    4904:	873e                	mv	a4,a5
    4906:	177d                	addi	a4,a4,-1
    4908:	ff7d                	bnez	a4,4906 <SWD_Transfer+0x52e>
    490a:	40011737          	lui	a4,0x40011
    490e:	6689                	lui	a3,0x2
    4910:	c0d72823          	sw	a3,-1008(a4) # 40010c10 <_eusrstack+0x20008c10>
    4914:	873e                	mv	a4,a5
    4916:	177d                	addi	a4,a4,-1
    4918:	ff7d                	bnez	a4,4916 <SWD_Transfer+0x53e>
    491a:	40011737          	lui	a4,0x40011
    491e:	6685                	lui	a3,0x1
    4920:	c0d72a23          	sw	a3,-1004(a4) # 40010c14 <_eusrstack+0x20008c14>
    4924:	6689                	lui	a3,0x2
    4926:	c0d72a23          	sw	a3,-1004(a4)
    492a:	873e                	mv	a4,a5
    492c:	177d                	addi	a4,a4,-1
    492e:	ff7d                	bnez	a4,492c <SWD_Transfer+0x554>
    4930:	40011737          	lui	a4,0x40011
    4934:	6689                	lui	a3,0x2
    4936:	c0d72823          	sw	a3,-1008(a4) # 40010c10 <_eusrstack+0x20008c10>
    493a:	873e                	mv	a4,a5
    493c:	177d                	addi	a4,a4,-1
    493e:	ff7d                	bnez	a4,493c <SWD_Transfer+0x564>
    4940:	40011737          	lui	a4,0x40011
    4944:	6685                	lui	a3,0x1
    4946:	c0d72823          	sw	a3,-1008(a4) # 40010c10 <_eusrstack+0x20008c10>
    494a:	6689                	lui	a3,0x2
    494c:	c0d72a23          	sw	a3,-1004(a4)
    4950:	873e                	mv	a4,a5
    4952:	177d                	addi	a4,a4,-1
    4954:	ff7d                	bnez	a4,4952 <SWD_Transfer+0x57a>
    4956:	40011737          	lui	a4,0x40011
    495a:	6689                	lui	a3,0x2
    495c:	c0d72823          	sw	a3,-1008(a4) # 40010c10 <_eusrstack+0x20008c10>
    4960:	17fd                	addi	a5,a5,-1
    4962:	fffd                	bnez	a5,4960 <SWD_Transfer+0x588>
    4964:	400117b7          	lui	a5,0x40011
    4968:	6705                	lui	a4,0x1
    496a:	c0e7a823          	sw	a4,-1008(a5) # 40010c10 <_eusrstack+0x20008c10>
    496e:	c047a703          	lw	a4,-1020(a5)
    4972:	fff106b7          	lui	a3,0xfff10
    4976:	16fd                	addi	a3,a3,-1
    4978:	8f75                	and	a4,a4,a3
    497a:	000806b7          	lui	a3,0x80
    497e:	8f55                	or	a4,a4,a3
    4980:	c0e7a223          	sw	a4,-1020(a5)
    4984:	200027b7          	lui	a5,0x20002
    4988:	cec7c783          	lbu	a5,-788(a5) # 20001cec <DAP_Data+0x18>
    498c:	c79d                	beqz	a5,49ba <SWD_Transfer+0x5e2>
    498e:	20002737          	lui	a4,0x20002
    4992:	cd872603          	lw	a2,-808(a4) # 20001cd8 <DAP_Data+0x4>
    4996:	400116b7          	lui	a3,0x40011
    499a:	c0068693          	addi	a3,a3,-1024 # 40010c00 <_eusrstack+0x20008c00>
    499e:	6809                	lui	a6,0x2
    49a0:	88c2                	mv	a7,a6
    49a2:	0116aa23          	sw	a7,20(a3)
    49a6:	8732                	mv	a4,a2
    49a8:	177d                	addi	a4,a4,-1
    49aa:	ff7d                	bnez	a4,49a8 <SWD_Transfer+0x5d0>
    49ac:	0106a823          	sw	a6,16(a3)
    49b0:	8732                	mv	a4,a2
    49b2:	177d                	addi	a4,a4,-1
    49b4:	ff7d                	bnez	a4,49b2 <SWD_Transfer+0x5da>
    49b6:	17fd                	addi	a5,a5,-1
    49b8:	f7ed                	bnez	a5,49a2 <SWD_Transfer+0x5ca>
    49ba:	400117b7          	lui	a5,0x40011
    49be:	6709                	lui	a4,0x2
    49c0:	c0e7aa23          	sw	a4,-1004(a5) # 40010c14 <_eusrstack+0x20008c14>
    49c4:	200027b7          	lui	a5,0x20002
    49c8:	cd87a603          	lw	a2,-808(a5) # 20001cd8 <DAP_Data+0x4>
    49cc:	87b2                	mv	a5,a2
    49ce:	17fd                	addi	a5,a5,-1
    49d0:	fffd                	bnez	a5,49ce <SWD_Transfer+0x5f6>
    49d2:	400117b7          	lui	a5,0x40011
    49d6:	c087a703          	lw	a4,-1016(a5) # 40010c08 <_eusrstack+0x20008c08>
    49da:	8331                	srli	a4,a4,0xc
    49dc:	00177893          	andi	a7,a4,1
    49e0:	6709                	lui	a4,0x2
    49e2:	c0e7a823          	sw	a4,-1008(a5)
    49e6:	87b2                	mv	a5,a2
    49e8:	17fd                	addi	a5,a5,-1
    49ea:	fffd                	bnez	a5,49e8 <SWD_Transfer+0x610>
    49ec:	400117b7          	lui	a5,0x40011
    49f0:	6709                	lui	a4,0x2
    49f2:	c0e7aa23          	sw	a4,-1004(a5) # 40010c14 <_eusrstack+0x20008c14>
    49f6:	87b2                	mv	a5,a2
    49f8:	17fd                	addi	a5,a5,-1
    49fa:	fffd                	bnez	a5,49f8 <SWD_Transfer+0x620>
    49fc:	400117b7          	lui	a5,0x40011
    4a00:	c087a703          	lw	a4,-1016(a5) # 40010c08 <_eusrstack+0x20008c08>
    4a04:	8331                	srli	a4,a4,0xc
    4a06:	8b05                	andi	a4,a4,1
    4a08:	6689                	lui	a3,0x2
    4a0a:	c0d7a823          	sw	a3,-1008(a5)
    4a0e:	87b2                	mv	a5,a2
    4a10:	17fd                	addi	a5,a5,-1
    4a12:	fffd                	bnez	a5,4a10 <SWD_Transfer+0x638>
    4a14:	00171693          	slli	a3,a4,0x1
    4a18:	400117b7          	lui	a5,0x40011
    4a1c:	6709                	lui	a4,0x2
    4a1e:	c0e7aa23          	sw	a4,-1004(a5) # 40010c14 <_eusrstack+0x20008c14>
    4a22:	87b2                	mv	a5,a2
    4a24:	17fd                	addi	a5,a5,-1
    4a26:	fffd                	bnez	a5,4a24 <SWD_Transfer+0x64c>
    4a28:	400117b7          	lui	a5,0x40011
    4a2c:	c087a703          	lw	a4,-1016(a5) # 40010c08 <_eusrstack+0x20008c08>
    4a30:	8331                	srli	a4,a4,0xc
    4a32:	8b05                	andi	a4,a4,1
    4a34:	6809                	lui	a6,0x2
    4a36:	c107a823          	sw	a6,-1008(a5)
    4a3a:	8832                	mv	a6,a2
    4a3c:	187d                	addi	a6,a6,-1
    4a3e:	fe081fe3          	bnez	a6,4a3c <SWD_Transfer+0x664>
    4a42:	070a                	slli	a4,a4,0x2
    4a44:	8f55                	or	a4,a4,a3
    4a46:	01176733          	or	a4,a4,a7
    4a4a:	4785                	li	a5,1
    4a4c:	0af70163          	beq	a4,a5,4aee <SWD_Transfer+0x716>
    4a50:	ffe70793          	addi	a5,a4,-2 # 1ffe <DAP_ProcessCommand+0x498>
    4a54:	9bf5                	andi	a5,a5,-3
    4a56:	2a078163          	beqz	a5,4cf8 <SWD_Transfer+0x920>
    4a5a:	200027b7          	lui	a5,0x20002
    4a5e:	cec7c683          	lbu	a3,-788(a5) # 20001cec <DAP_Data+0x18>
    4a62:	02168693          	addi	a3,a3,33 # 2021 <DAP_ProcessCommand+0x4bb>
    4a66:	400115b7          	lui	a1,0x40011
    4a6a:	c0058593          	addi	a1,a1,-1024 # 40010c00 <_eusrstack+0x20008c00>
    4a6e:	6509                	lui	a0,0x2
    4a70:	882a                	mv	a6,a0
    4a72:	0105aa23          	sw	a6,20(a1)
    4a76:	87b2                	mv	a5,a2
    4a78:	17fd                	addi	a5,a5,-1
    4a7a:	fffd                	bnez	a5,4a78 <SWD_Transfer+0x6a0>
    4a7c:	c988                	sw	a0,16(a1)
    4a7e:	87b2                	mv	a5,a2
    4a80:	17fd                	addi	a5,a5,-1
    4a82:	fffd                	bnez	a5,4a80 <SWD_Transfer+0x6a8>
    4a84:	16fd                	addi	a3,a3,-1
    4a86:	f6f5                	bnez	a3,4a72 <SWD_Transfer+0x69a>
    4a88:	400117b7          	lui	a5,0x40011
    4a8c:	6585                	lui	a1,0x1
    4a8e:	c0b7aa23          	sw	a1,-1004(a5) # 40010c14 <_eusrstack+0x20008c14>
    4a92:	c047a683          	lw	a3,-1020(a5)
    4a96:	fff10637          	lui	a2,0xfff10
    4a9a:	167d                	addi	a2,a2,-1
    4a9c:	8ef1                	and	a3,a3,a2
    4a9e:	00030637          	lui	a2,0x30
    4aa2:	8ed1                	or	a3,a3,a2
    4aa4:	c0d7a223          	sw	a3,-1020(a5)
    4aa8:	c0b7a823          	sw	a1,-1008(a5)
    4aac:	0ff77513          	andi	a0,a4,255
    4ab0:	8082                	ret
    4ab2:	40011737          	lui	a4,0x40011
    4ab6:	6685                	lui	a3,0x1
    4ab8:	c0d72a23          	sw	a3,-1004(a4) # 40010c14 <_eusrstack+0x20008c14>
    4abc:	b3a5                	j	4824 <SWD_Transfer+0x44c>
    4abe:	400116b7          	lui	a3,0x40011
    4ac2:	6605                	lui	a2,0x1
    4ac4:	c0c6aa23          	sw	a2,-1004(a3) # 40010c14 <_eusrstack+0x20008c14>
    4ac8:	bb49                	j	485a <SWD_Transfer+0x482>
    4aca:	400116b7          	lui	a3,0x40011
    4ace:	6605                	lui	a2,0x1
    4ad0:	c0c6aa23          	sw	a2,-1004(a3) # 40010c14 <_eusrstack+0x20008c14>
    4ad4:	bb75                	j	4890 <SWD_Transfer+0x4b8>
    4ad6:	400116b7          	lui	a3,0x40011
    4ada:	6805                	lui	a6,0x1
    4adc:	c106aa23          	sw	a6,-1004(a3) # 40010c14 <_eusrstack+0x20008c14>
    4ae0:	b3e5                	j	48c8 <SWD_Transfer+0x4f0>
    4ae2:	40011737          	lui	a4,0x40011
    4ae6:	6685                	lui	a3,0x1
    4ae8:	c0d72a23          	sw	a3,-1004(a4) # 40010c14 <_eusrstack+0x20008c14>
    4aec:	b539                	j	48fa <SWD_Transfer+0x522>
    4aee:	00257793          	andi	a5,a0,2
    4af2:	cbe1                	beqz	a5,4bc2 <SWD_Transfer+0x7ea>
    4af4:	86c2                	mv	a3,a6
    4af6:	02000e13          	li	t3,32
    4afa:	40011337          	lui	t1,0x40011
    4afe:	c0030313          	addi	t1,t1,-1024 # 40010c00 <_eusrstack+0x20008c00>
    4b02:	6e89                	lui	t4,0x2
    4b04:	8f76                	mv	t5,t4
    4b06:	01e32a23          	sw	t5,20(t1)
    4b0a:	87b2                	mv	a5,a2
    4b0c:	17fd                	addi	a5,a5,-1
    4b0e:	fffd                	bnez	a5,4b0c <SWD_Transfer+0x734>
    4b10:	00832783          	lw	a5,8(t1)
    4b14:	83b1                	srli	a5,a5,0xc
    4b16:	8b85                	andi	a5,a5,1
    4b18:	01d32823          	sw	t4,16(t1)
    4b1c:	88b2                	mv	a7,a2
    4b1e:	18fd                	addi	a7,a7,-1
    4b20:	fe089fe3          	bnez	a7,4b1e <SWD_Transfer+0x746>
    4b24:	983e                	add	a6,a6,a5
    4b26:	8285                	srli	a3,a3,0x1
    4b28:	07fe                	slli	a5,a5,0x1f
    4b2a:	8edd                	or	a3,a3,a5
    4b2c:	1e7d                	addi	t3,t3,-1
    4b2e:	fc0e1ce3          	bnez	t3,4b06 <SWD_Transfer+0x72e>
    4b32:	400117b7          	lui	a5,0x40011
    4b36:	6889                	lui	a7,0x2
    4b38:	c117aa23          	sw	a7,-1004(a5) # 40010c14 <_eusrstack+0x20008c14>
    4b3c:	87b2                	mv	a5,a2
    4b3e:	17fd                	addi	a5,a5,-1
    4b40:	fffd                	bnez	a5,4b3e <SWD_Transfer+0x766>
    4b42:	400117b7          	lui	a5,0x40011
    4b46:	c087a883          	lw	a7,-1016(a5) # 40010c08 <_eusrstack+0x20008c08>
    4b4a:	00c8d893          	srli	a7,a7,0xc
    4b4e:	0018f893          	andi	a7,a7,1
    4b52:	6309                	lui	t1,0x2
    4b54:	c067a823          	sw	t1,-1008(a5)
    4b58:	167d                	addi	a2,a2,-1
    4b5a:	fe7d                	bnez	a2,4b58 <SWD_Transfer+0x780>
    4b5c:	00187793          	andi	a5,a6,1
    4b60:	01178363          	beq	a5,a7,4b66 <SWD_Transfer+0x78e>
    4b64:	4721                	li	a4,8
    4b66:	c191                	beqz	a1,4b6a <SWD_Transfer+0x792>
    4b68:	c194                	sw	a3,0(a1)
    4b6a:	200027b7          	lui	a5,0x20002
    4b6e:	cec7c683          	lbu	a3,-788(a5) # 20001cec <DAP_Data+0x18>
    4b72:	c69d                	beqz	a3,4ba0 <SWD_Transfer+0x7c8>
    4b74:	200027b7          	lui	a5,0x20002
    4b78:	cd87a583          	lw	a1,-808(a5) # 20001cd8 <DAP_Data+0x4>
    4b7c:	40011637          	lui	a2,0x40011
    4b80:	c0060613          	addi	a2,a2,-1024 # 40010c00 <_eusrstack+0x20008c00>
    4b84:	6809                	lui	a6,0x2
    4b86:	88c2                	mv	a7,a6
    4b88:	01162a23          	sw	a7,20(a2)
    4b8c:	87ae                	mv	a5,a1
    4b8e:	17fd                	addi	a5,a5,-1
    4b90:	fffd                	bnez	a5,4b8e <SWD_Transfer+0x7b6>
    4b92:	01062823          	sw	a6,16(a2)
    4b96:	87ae                	mv	a5,a1
    4b98:	17fd                	addi	a5,a5,-1
    4b9a:	fffd                	bnez	a5,4b98 <SWD_Transfer+0x7c0>
    4b9c:	16fd                	addi	a3,a3,-1
    4b9e:	f6ed                	bnez	a3,4b88 <SWD_Transfer+0x7b0>
    4ba0:	400117b7          	lui	a5,0x40011
    4ba4:	6685                	lui	a3,0x1
    4ba6:	c0d7aa23          	sw	a3,-1004(a5) # 40010c14 <_eusrstack+0x20008c14>
    4baa:	c047a683          	lw	a3,-1020(a5)
    4bae:	fff10637          	lui	a2,0xfff10
    4bb2:	167d                	addi	a2,a2,-1
    4bb4:	8ef1                	and	a3,a3,a2
    4bb6:	00030637          	lui	a2,0x30
    4bba:	8ed1                	or	a3,a3,a2
    4bbc:	c0d7a223          	sw	a3,-1020(a5)
    4bc0:	a8c1                	j	4c90 <SWD_Transfer+0x8b8>
    4bc2:	200027b7          	lui	a5,0x20002
    4bc6:	cec7c683          	lbu	a3,-788(a5) # 20001cec <DAP_Data+0x18>
    4bca:	c29d                	beqz	a3,4bf0 <SWD_Transfer+0x818>
    4bcc:	400118b7          	lui	a7,0x40011
    4bd0:	c0088893          	addi	a7,a7,-1024 # 40010c00 <_eusrstack+0x20008c00>
    4bd4:	6309                	lui	t1,0x2
    4bd6:	8e1a                	mv	t3,t1
    4bd8:	01c8aa23          	sw	t3,20(a7)
    4bdc:	87b2                	mv	a5,a2
    4bde:	17fd                	addi	a5,a5,-1
    4be0:	fffd                	bnez	a5,4bde <SWD_Transfer+0x806>
    4be2:	0068a823          	sw	t1,16(a7)
    4be6:	87b2                	mv	a5,a2
    4be8:	17fd                	addi	a5,a5,-1
    4bea:	fffd                	bnez	a5,4be8 <SWD_Transfer+0x810>
    4bec:	16fd                	addi	a3,a3,-1
    4bee:	f6ed                	bnez	a3,4bd8 <SWD_Transfer+0x800>
    4bf0:	400117b7          	lui	a5,0x40011
    4bf4:	6685                	lui	a3,0x1
    4bf6:	c0d7aa23          	sw	a3,-1004(a5) # 40010c14 <_eusrstack+0x20008c14>
    4bfa:	c047a683          	lw	a3,-1020(a5)
    4bfe:	fff10637          	lui	a2,0xfff10
    4c02:	167d                	addi	a2,a2,-1
    4c04:	8ef1                	and	a3,a3,a2
    4c06:	00030637          	lui	a2,0x30
    4c0a:	8ed1                	or	a3,a3,a2
    4c0c:	c0d7a223          	sw	a3,-1020(a5)
    4c10:	4194                	lw	a3,0(a1)
    4c12:	200027b7          	lui	a5,0x20002
    4c16:	cd87a883          	lw	a7,-808(a5) # 20001cd8 <DAP_Data+0x4>
    4c1a:	02000593          	li	a1,32
    4c1e:	40011637          	lui	a2,0x40011
    4c22:	c0060613          	addi	a2,a2,-1024 # 40010c00 <_eusrstack+0x20008c00>
    4c26:	6305                	lui	t1,0x1
    4c28:	6e09                	lui	t3,0x2
    4c2a:	8ef2                	mv	t4,t3
    4c2c:	a00d                	j	4c4e <SWD_Transfer+0x876>
    4c2e:	00662a23          	sw	t1,20(a2)
    4c32:	01d62a23          	sw	t4,20(a2)
    4c36:	87c6                	mv	a5,a7
    4c38:	17fd                	addi	a5,a5,-1
    4c3a:	fffd                	bnez	a5,4c38 <SWD_Transfer+0x860>
    4c3c:	01c62823          	sw	t3,16(a2)
    4c40:	87c6                	mv	a5,a7
    4c42:	17fd                	addi	a5,a5,-1
    4c44:	fffd                	bnez	a5,4c42 <SWD_Transfer+0x86a>
    4c46:	9836                	add	a6,a6,a3
    4c48:	8285                	srli	a3,a3,0x1
    4c4a:	15fd                	addi	a1,a1,-1
    4c4c:	c599                	beqz	a1,4c5a <SWD_Transfer+0x882>
    4c4e:	0016f793          	andi	a5,a3,1
    4c52:	dff1                	beqz	a5,4c2e <SWD_Transfer+0x856>
    4c54:	00662823          	sw	t1,16(a2)
    4c58:	bfe9                	j	4c32 <SWD_Transfer+0x85a>
    4c5a:	00187793          	andi	a5,a6,1
    4c5e:	c7d9                	beqz	a5,4cec <SWD_Transfer+0x914>
    4c60:	400117b7          	lui	a5,0x40011
    4c64:	6685                	lui	a3,0x1
    4c66:	c0d7a823          	sw	a3,-1008(a5) # 40010c10 <_eusrstack+0x20008c10>
    4c6a:	400117b7          	lui	a5,0x40011
    4c6e:	6689                	lui	a3,0x2
    4c70:	c0d7aa23          	sw	a3,-1004(a5) # 40010c14 <_eusrstack+0x20008c14>
    4c74:	200027b7          	lui	a5,0x20002
    4c78:	cd87a783          	lw	a5,-808(a5) # 20001cd8 <DAP_Data+0x4>
    4c7c:	86be                	mv	a3,a5
    4c7e:	16fd                	addi	a3,a3,-1
    4c80:	fefd                	bnez	a3,4c7e <SWD_Transfer+0x8a6>
    4c82:	400116b7          	lui	a3,0x40011
    4c86:	6609                	lui	a2,0x2
    4c88:	c0c6a823          	sw	a2,-1008(a3) # 40010c10 <_eusrstack+0x20008c10>
    4c8c:	17fd                	addi	a5,a5,-1
    4c8e:	fffd                	bnez	a5,4c8c <SWD_Transfer+0x8b4>
    4c90:	08057513          	andi	a0,a0,128
    4c94:	c509                	beqz	a0,4c9e <SWD_Transfer+0x8c6>
    4c96:	200027b7          	lui	a5,0x20002
    4c9a:	cc07ae23          	sw	zero,-804(a5) # 20001cdc <DAP_Data+0x8>
    4c9e:	200027b7          	lui	a5,0x20002
    4ca2:	ce07c683          	lbu	a3,-800(a5) # 20001ce0 <DAP_Data+0xc>
    4ca6:	ca9d                	beqz	a3,4cdc <SWD_Transfer+0x904>
    4ca8:	400117b7          	lui	a5,0x40011
    4cac:	6605                	lui	a2,0x1
    4cae:	c0c7aa23          	sw	a2,-1004(a5) # 40010c14 <_eusrstack+0x20008c14>
    4cb2:	200027b7          	lui	a5,0x20002
    4cb6:	cd87a583          	lw	a1,-808(a5) # 20001cd8 <DAP_Data+0x4>
    4cba:	40011637          	lui	a2,0x40011
    4cbe:	c0060613          	addi	a2,a2,-1024 # 40010c00 <_eusrstack+0x20008c00>
    4cc2:	6509                	lui	a0,0x2
    4cc4:	882a                	mv	a6,a0
    4cc6:	01062a23          	sw	a6,20(a2)
    4cca:	87ae                	mv	a5,a1
    4ccc:	17fd                	addi	a5,a5,-1
    4cce:	fffd                	bnez	a5,4ccc <SWD_Transfer+0x8f4>
    4cd0:	ca08                	sw	a0,16(a2)
    4cd2:	87ae                	mv	a5,a1
    4cd4:	17fd                	addi	a5,a5,-1
    4cd6:	fffd                	bnez	a5,4cd4 <SWD_Transfer+0x8fc>
    4cd8:	16fd                	addi	a3,a3,-1
    4cda:	f6f5                	bnez	a3,4cc6 <SWD_Transfer+0x8ee>
    4cdc:	400117b7          	lui	a5,0x40011
    4ce0:	6685                	lui	a3,0x1
    4ce2:	c0d7a823          	sw	a3,-1008(a5) # 40010c10 <_eusrstack+0x20008c10>
    4ce6:	0ff77513          	andi	a0,a4,255
    4cea:	8082                	ret
    4cec:	400117b7          	lui	a5,0x40011
    4cf0:	6685                	lui	a3,0x1
    4cf2:	c0d7aa23          	sw	a3,-1004(a5) # 40010c14 <_eusrstack+0x20008c14>
    4cf6:	bf95                	j	4c6a <SWD_Transfer+0x892>
    4cf8:	200027b7          	lui	a5,0x20002
    4cfc:	ced7c783          	lbu	a5,-787(a5) # 20001ced <DAP_Data+0x19>
    4d00:	cb85                	beqz	a5,4d30 <SWD_Transfer+0x958>
    4d02:	00257793          	andi	a5,a0,2
    4d06:	c78d                	beqz	a5,4d30 <SWD_Transfer+0x958>
    4d08:	02100693          	li	a3,33
    4d0c:	400115b7          	lui	a1,0x40011
    4d10:	c0058593          	addi	a1,a1,-1024 # 40010c00 <_eusrstack+0x20008c00>
    4d14:	6809                	lui	a6,0x2
    4d16:	88c2                	mv	a7,a6
    4d18:	0115aa23          	sw	a7,20(a1)
    4d1c:	87b2                	mv	a5,a2
    4d1e:	17fd                	addi	a5,a5,-1
    4d20:	fffd                	bnez	a5,4d1e <SWD_Transfer+0x946>
    4d22:	0105a823          	sw	a6,16(a1)
    4d26:	87b2                	mv	a5,a2
    4d28:	17fd                	addi	a5,a5,-1
    4d2a:	fffd                	bnez	a5,4d28 <SWD_Transfer+0x950>
    4d2c:	16fd                	addi	a3,a3,-1
    4d2e:	f6ed                	bnez	a3,4d18 <SWD_Transfer+0x940>
    4d30:	200027b7          	lui	a5,0x20002
    4d34:	cec7c683          	lbu	a3,-788(a5) # 20001cec <DAP_Data+0x18>
    4d38:	c29d                	beqz	a3,4d5e <SWD_Transfer+0x986>
    4d3a:	400115b7          	lui	a1,0x40011
    4d3e:	c0058593          	addi	a1,a1,-1024 # 40010c00 <_eusrstack+0x20008c00>
    4d42:	6809                	lui	a6,0x2
    4d44:	88c2                	mv	a7,a6
    4d46:	0115aa23          	sw	a7,20(a1)
    4d4a:	87b2                	mv	a5,a2
    4d4c:	17fd                	addi	a5,a5,-1
    4d4e:	fffd                	bnez	a5,4d4c <SWD_Transfer+0x974>
    4d50:	0105a823          	sw	a6,16(a1)
    4d54:	87b2                	mv	a5,a2
    4d56:	17fd                	addi	a5,a5,-1
    4d58:	fffd                	bnez	a5,4d56 <SWD_Transfer+0x97e>
    4d5a:	16fd                	addi	a3,a3,-1
    4d5c:	f6ed                	bnez	a3,4d46 <SWD_Transfer+0x96e>
    4d5e:	400117b7          	lui	a5,0x40011
    4d62:	6685                	lui	a3,0x1
    4d64:	c0d7aa23          	sw	a3,-1004(a5) # 40010c14 <_eusrstack+0x20008c14>
    4d68:	c047a683          	lw	a3,-1020(a5)
    4d6c:	fff10637          	lui	a2,0xfff10
    4d70:	167d                	addi	a2,a2,-1
    4d72:	8ef1                	and	a3,a3,a2
    4d74:	00030637          	lui	a2,0x30
    4d78:	8ed1                	or	a3,a3,a2
    4d7a:	c0d7a223          	sw	a3,-1020(a5)
    4d7e:	200027b7          	lui	a5,0x20002
    4d82:	ced7c783          	lbu	a5,-787(a5) # 20001ced <DAP_Data+0x19>
    4d86:	c3a1                	beqz	a5,4dc6 <SWD_Transfer+0x9ee>
    4d88:	00257793          	andi	a5,a0,2
    4d8c:	ef8d                	bnez	a5,4dc6 <SWD_Transfer+0x9ee>
    4d8e:	400117b7          	lui	a5,0x40011
    4d92:	6685                	lui	a3,0x1
    4d94:	c0d7aa23          	sw	a3,-1004(a5) # 40010c14 <_eusrstack+0x20008c14>
    4d98:	200027b7          	lui	a5,0x20002
    4d9c:	cd87a583          	lw	a1,-808(a5) # 20001cd8 <DAP_Data+0x4>
    4da0:	02100693          	li	a3,33
    4da4:	40011637          	lui	a2,0x40011
    4da8:	c0060613          	addi	a2,a2,-1024 # 40010c00 <_eusrstack+0x20008c00>
    4dac:	6509                	lui	a0,0x2
    4dae:	882a                	mv	a6,a0
    4db0:	01062a23          	sw	a6,20(a2)
    4db4:	87ae                	mv	a5,a1
    4db6:	17fd                	addi	a5,a5,-1
    4db8:	fffd                	bnez	a5,4db6 <SWD_Transfer+0x9de>
    4dba:	ca08                	sw	a0,16(a2)
    4dbc:	87ae                	mv	a5,a1
    4dbe:	17fd                	addi	a5,a5,-1
    4dc0:	fffd                	bnez	a5,4dbe <SWD_Transfer+0x9e6>
    4dc2:	16fd                	addi	a3,a3,-1
    4dc4:	f6f5                	bnez	a3,4db0 <SWD_Transfer+0x9d8>
    4dc6:	400117b7          	lui	a5,0x40011
    4dca:	6685                	lui	a3,0x1
    4dcc:	c0d7a823          	sw	a3,-1008(a5) # 40010c10 <_eusrstack+0x20008c10>
    4dd0:	0ff77513          	andi	a0,a4,255
    4dd4:	8082                	ret

00004dd6 <memcpy>:
    4dd6:	00a5c7b3          	xor	a5,a1,a0
    4dda:	8b8d                	andi	a5,a5,3
    4ddc:	00c50733          	add	a4,a0,a2
    4de0:	e781                	bnez	a5,4de8 <memcpy+0x12>
    4de2:	478d                	li	a5,3
    4de4:	00c7ee63          	bltu	a5,a2,4e00 <memcpy+0x2a>
    4de8:	87aa                	mv	a5,a0
    4dea:	0ae57063          	bgeu	a0,a4,4e8a <memcpy+0xb4>
    4dee:	0005c683          	lbu	a3,0(a1)
    4df2:	0785                	addi	a5,a5,1
    4df4:	0585                	addi	a1,a1,1
    4df6:	fed78fa3          	sb	a3,-1(a5)
    4dfa:	fee7eae3          	bltu	a5,a4,4dee <memcpy+0x18>
    4dfe:	8082                	ret
    4e00:	00357693          	andi	a3,a0,3
    4e04:	87aa                	mv	a5,a0
    4e06:	ca91                	beqz	a3,4e1a <memcpy+0x44>
    4e08:	0005c683          	lbu	a3,0(a1)
    4e0c:	0785                	addi	a5,a5,1
    4e0e:	0585                	addi	a1,a1,1
    4e10:	fed78fa3          	sb	a3,-1(a5)
    4e14:	0037f693          	andi	a3,a5,3
    4e18:	b7fd                	j	4e06 <memcpy+0x30>
    4e1a:	ffc77693          	andi	a3,a4,-4
    4e1e:	fe068613          	addi	a2,a3,-32 # fe0 <GPIO_Init+0xb0>
    4e22:	06c7f063          	bgeu	a5,a2,4e82 <memcpy+0xac>
    4e26:	0005a383          	lw	t2,0(a1)
    4e2a:	0045a283          	lw	t0,4(a1)
    4e2e:	0085af83          	lw	t6,8(a1)
    4e32:	00c5af03          	lw	t5,12(a1)
    4e36:	0105ae83          	lw	t4,16(a1)
    4e3a:	0145ae03          	lw	t3,20(a1)
    4e3e:	0185a303          	lw	t1,24(a1)
    4e42:	01c5a883          	lw	a7,28(a1)
    4e46:	02458593          	addi	a1,a1,36
    4e4a:	0077a023          	sw	t2,0(a5)
    4e4e:	ffc5a803          	lw	a6,-4(a1)
    4e52:	0057a223          	sw	t0,4(a5)
    4e56:	01f7a423          	sw	t6,8(a5)
    4e5a:	01e7a623          	sw	t5,12(a5)
    4e5e:	01d7a823          	sw	t4,16(a5)
    4e62:	01c7aa23          	sw	t3,20(a5)
    4e66:	0067ac23          	sw	t1,24(a5)
    4e6a:	0117ae23          	sw	a7,28(a5)
    4e6e:	02478793          	addi	a5,a5,36
    4e72:	ff07ae23          	sw	a6,-4(a5)
    4e76:	b775                	j	4e22 <memcpy+0x4c>
    4e78:	4190                	lw	a2,0(a1)
    4e7a:	0791                	addi	a5,a5,4
    4e7c:	0591                	addi	a1,a1,4
    4e7e:	fec7ae23          	sw	a2,-4(a5)
    4e82:	fed7ebe3          	bltu	a5,a3,4e78 <memcpy+0xa2>
    4e86:	f6e7e4e3          	bltu	a5,a4,4dee <memcpy+0x18>
    4e8a:	8082                	ret
    4e8c:	077c                	addi	a5,sp,908
    4e8e:	0000                	unimp
    4e90:	0672                	slli	a2,a2,0x1c
    4e92:	0000                	unimp
    4e94:	098a                	slli	s3,s3,0x2
    4e96:	0000                	unimp
    4e98:	06e6                	slli	a3,a3,0x19
    4e9a:	0000                	unimp
    4e9c:	098a                	slli	s3,s3,0x2
    4e9e:	0000                	unimp
    4ea0:	062a                	slli	a2,a2,0xa
    4ea2:	0000                	unimp
    4ea4:	0420                	addi	s0,sp,520
    4ea6:	0000                	unimp
    4ea8:	098a                	slli	s3,s3,0x2
    4eaa:	0000                	unimp
    4eac:	0634                	addi	a3,sp,776
    4eae:	0000                	unimp
    4eb0:	0656                	slli	a2,a2,0x15
    4eb2:	0000                	unimp
    4eb4:	0666                	slli	a2,a2,0x19
    4eb6:	0000                	unimp
    4eb8:	096a                	slli	s2,s2,0x1a
    4eba:	0000                	unimp
    4ebc:	0622                	slli	a2,a2,0x8
    4ebe:	0000                	unimp
    4ec0:	0444                	addi	s1,sp,516
    4ec2:	0000                	unimp
    4ec4:	0496                	slli	s1,s1,0x5
    4ec6:	0000                	unimp
    4ec8:	05a4                	addi	s1,sp,712
    4eca:	0000                	unimp
    4ecc:	0622                	slli	a2,a2,0x8
    4ece:	0000                	unimp
    4ed0:	0622                	slli	a2,a2,0x8
    4ed2:	0000                	unimp
    4ed4:	0610                	addi	a2,sp,768
    4ed6:	0000                	unimp
    4ed8:	04ee                	slli	s1,s1,0x1b
    4eda:	0000                	unimp
    4edc:	0622                	slli	a2,a2,0x8
    4ede:	0000                	unimp
    4ee0:	0622                	slli	a2,a2,0x8
    4ee2:	0000                	unimp
    4ee4:	0622                	slli	a2,a2,0x8
    4ee6:	0000                	unimp
    4ee8:	0622                	slli	a2,a2,0x8
    4eea:	0000                	unimp
    4eec:	0622                	slli	a2,a2,0x8
    4eee:	0000                	unimp
    4ef0:	0622                	slli	a2,a2,0x8
    4ef2:	0000                	unimp
    4ef4:	0622                	slli	a2,a2,0x8
    4ef6:	0000                	unimp
    4ef8:	0622                	slli	a2,a2,0x8
    4efa:	0000                	unimp
    4efc:	0622                	slli	a2,a2,0x8
    4efe:	0000                	unimp
    4f00:	0622                	slli	a2,a2,0x8
    4f02:	0000                	unimp
    4f04:	0622                	slli	a2,a2,0x8
    4f06:	0000                	unimp
    4f08:	0622                	slli	a2,a2,0x8
    4f0a:	0000                	unimp
    4f0c:	0622                	slli	a2,a2,0x8
    4f0e:	0000                	unimp
    4f10:	0622                	slli	a2,a2,0x8
    4f12:	0000                	unimp
    4f14:	0622                	slli	a2,a2,0x8
    4f16:	0000                	unimp
    4f18:	0622                	slli	a2,a2,0x8
    4f1a:	0000                	unimp
    4f1c:	0622                	slli	a2,a2,0x8
    4f1e:	0000                	unimp
    4f20:	0622                	slli	a2,a2,0x8
    4f22:	0000                	unimp
    4f24:	0622                	slli	a2,a2,0x8
    4f26:	0000                	unimp
    4f28:	0622                	slli	a2,a2,0x8
    4f2a:	0000                	unimp
    4f2c:	0622                	slli	a2,a2,0x8
    4f2e:	0000                	unimp
    4f30:	0622                	slli	a2,a2,0x8
    4f32:	0000                	unimp
    4f34:	0622                	slli	a2,a2,0x8
    4f36:	0000                	unimp
    4f38:	0622                	slli	a2,a2,0x8
    4f3a:	0000                	unimp
    4f3c:	0622                	slli	a2,a2,0x8
    4f3e:	0000                	unimp
    4f40:	056e                	slli	a0,a0,0x1b
    4f42:	0000                	unimp
    4f44:	0538                	addi	a4,sp,648
    4f46:	0000                	unimp
    4f48:	0882                	c.slli64	a7
    4f4a:	0000                	unimp
    4f4c:	0888                	addi	a0,sp,80
    4f4e:	0000                	unimp
    4f50:	08fc                	addi	a5,sp,92
    4f52:	0000                	unimp
    4f54:	0914                	addi	a3,sp,144
    4f56:	0000                	unimp
    4f58:	0882                	c.slli64	a7
    4f5a:	0000                	unimp
    4f5c:	0882                	c.slli64	a7
    4f5e:	0000                	unimp
    4f60:	0882                	c.slli64	a7
    4f62:	0000                	unimp
    4f64:	0882                	c.slli64	a7
    4f66:	0000                	unimp
    4f68:	0882                	c.slli64	a7
    4f6a:	0000                	unimp
    4f6c:	092c                	addi	a1,sp,152
    4f6e:	0000                	unimp
    4f70:	08ee                	slli	a7,a7,0x1b
    4f72:	0000                	unimp
    4f74:	0908                	addi	a0,sp,144
    4f76:	0000                	unimp
    4f78:	0882                	c.slli64	a7
    4f7a:	0000                	unimp
    4f7c:	0882                	c.slli64	a7
    4f7e:	0000                	unimp
    4f80:	0882                	c.slli64	a7
    4f82:	0000                	unimp
    4f84:	0882                	c.slli64	a7
    4f86:	0000                	unimp
    4f88:	0882                	c.slli64	a7
    4f8a:	0000                	unimp
    4f8c:	0882                	c.slli64	a7
    4f8e:	0000                	unimp
    4f90:	0882                	c.slli64	a7
    4f92:	0000                	unimp
    4f94:	0882                	c.slli64	a7
    4f96:	0000                	unimp
    4f98:	0882                	c.slli64	a7
    4f9a:	0000                	unimp
    4f9c:	0882                	c.slli64	a7
    4f9e:	0000                	unimp
    4fa0:	0882                	c.slli64	a7
    4fa2:	0000                	unimp
    4fa4:	0882                	c.slli64	a7
    4fa6:	0000                	unimp
    4fa8:	0882                	c.slli64	a7
    4faa:	0000                	unimp
    4fac:	0882                	c.slli64	a7
    4fae:	0000                	unimp
    4fb0:	0882                	c.slli64	a7
    4fb2:	0000                	unimp
    4fb4:	0882                	c.slli64	a7
    4fb6:	0000                	unimp
    4fb8:	0882                	c.slli64	a7
    4fba:	0000                	unimp
    4fbc:	0882                	c.slli64	a7
    4fbe:	0000                	unimp
    4fc0:	0882                	c.slli64	a7
    4fc2:	0000                	unimp
    4fc4:	0882                	c.slli64	a7
    4fc6:	0000                	unimp
    4fc8:	092c                	addi	a1,sp,152
    4fca:	0000                	unimp
    4fcc:	0920                	addi	s0,sp,152
    4fce:	0000                	unimp
    4fd0:	092c                	addi	a1,sp,152
	...

00004fd4 <HID_ReportDesc_FS>:
    4fd4:	0006 09ff a101 1901 2901 1540 2600 00ff     .........)@..&..
    4fe4:	0875 4095 0081 0119 4029 0091 00c0 0000     u..@....)@......

00004ff4 <HID_ReportDesc_HS>:
    4ff4:	0006 09ff a101 1901 2901 1540 2600 00ff     .........)@..&..
    5004:	0875 4095 0081 0119 4029 0091 00c0 0000     u..@....)@......

00005014 <USB_CfgDesc_FS>:
    5014:	0209 006b 0103 0000 0964 0004 0200 0003     ..k.....d.......
    5024:	0000 2109 0110 0100 1d22 0700 0105 4003     ...!...."......@
    5034:	0100 0507 0381 0040 0801 010b 0202 0102     ......@.........
    5044:	0900 0104 0100 0202 0001 2405 1000 0501     ...........$....
    5054:	0124 0200 2404 0002 2405 0106 0702 8205     $....$...$......
    5064:	0803 0a00 0409 0002 0a02 0000 0700 8305     ................
    5074:	4002 0000 0507 0203 0040 0000               .@......@...

00005080 <USB_CfgDesc_HS>:
    5080:	0209 006b 0103 0000 0964 0004 0200 0003     ..k.....d.......
    5090:	0000 2109 0110 0100 1d22 0700 0105 0003     ...!....".......
    50a0:	0102 0507 0381 0200 0801 010b 0202 0102     ................
    50b0:	0900 0104 0100 0202 0001 2405 1000 0501     ...........$....
    50c0:	0124 0200 2404 0002 2405 0106 0702 8205     $....$...$......
    50d0:	0803 0a00 0409 0002 0a02 0000 0700 8305     ................
    50e0:	0002 0002 0507 0203 0200 0000               ............

000050ec <USB_DevDesc>:
    50ec:	0112 0200 0000 4000 0416 5951 0110 0201     .......@..QY....
    50fc:	0103 0000                                   ....

00005100 <USB_QualifierDesc>:
    5100:	060a 0200 ffff 40ff 0001 0000               .......@....

0000510c <USB_StringProduct>:
    510c:	0324 0058 0056 002d 004c 0069 006e 006b     $.X.V.-.L.i.n.k.
    511c:	0020 0043 004d 0053 0049 0053 002d 0044      .C.M.S.I.S.-.D.
    512c:	0041 0050                                   A.P.

00005130 <USB_StringSerialNbr>:
    5130:	031a 0030 0031 0032 0033 0034 0035 0036     ..0.1.2.3.4.5.6.
    5140:	0037 0038 0039 0041 0042 0000               7.8.9.A.B...

0000514c <USB_StringVendor>:
    514c:	0312 0058 0049 0056 004e 0031 0039 0038     ..X.I.V.N.1.9.8.
    515c:	0037 0000 1bb6 0000 1d46 0000 1daa 0000     7.......F.......
    516c:	1e94 0000 2332 0000 236e 0000 2c86 0000     ....2#..n#...,..
    517c:	30da 0000 3028 0000 1eb2 0000 1ed6 0000     .0..(0..........
    518c:	30da 0000 30da 0000 30da 0000 30da 0000     .0...0...0...0..
    519c:	30da 0000 1ef6 0000 2064 0000 20e8 0000     .0......d ... ..
    51ac:	2110 0000 2200 0000 2266 0000 22d2 0000     .!..."..f"..."..
    51bc:	30da 0000 30da 0000 30da 0000 30da 0000     .0...0...0...0..
    51cc:	30da 0000 30da 0000 2138 0000 4958 4e56     .0...0..8!..XIVN
    51dc:	3931 3738 0000 0000 5658 4c2d 6e69 206b     1987....XV-Link 
    51ec:	4d43 4953 2d53 4144 0050 0000 3030 3232     CMSIS-DAP...0022
    51fc:	3130 3131 3030 3030 0000 0000 3156 302e     01110000....V1.0
    520c:	0000 0000                                   ....
